

Microchip Technology PIC LITE Macro Assembler V1.20 build 52243 
                                                                                               Fri Nov 08 13:49:56 2013

Microchip Technology Omniscient Code Generator (Lite mode) build 52243
     1                           	processor	16F886
     2                           	opt	pw 120
     3                           	opt	lm
     4                           	psect	idataBANK0,global,class=CODE,delta=2
     5                           	psect	strings,global,class=STRING,delta=2
     6                           	psect	stringtext,global,reloc=256,class=STRCODE,delta=2
     7                           	psect	cinit,global,class=CODE,merge=1,delta=2
     8                           	psect	bitbssBANK0,global,bit,class=BANK0,space=1,delta=1
     9                           	psect	bssBANK0,global,class=BANK0,space=1,delta=1
    10                           	psect	dataBANK0,global,class=BANK0,space=1,delta=1
    11                           	psect	cstackCOMMON,global,class=COMMON,space=1,delta=1
    12                           	psect	cstackBANK0,global,class=BANK0,space=1,delta=1
    13                           	psect	maintext,global,class=CODE,split=1,delta=2
    14                           	psect	text1,local,class=CODE,merge=1,delta=2
    15                           	psect	text2,local,class=CODE,merge=1,delta=2
    16                           	psect	text3,local,class=CODE,merge=1,delta=2
    17                           	psect	text4,local,class=CODE,merge=1,delta=2
    18                           	psect	text5,local,class=CODE,merge=1,delta=2
    19                           	psect	text6,local,class=CODE,merge=1,delta=2
    20                           	psect	text7,local,class=CODE,merge=1,delta=2
    21                           	psect	text8,local,class=CODE,merge=1,delta=2
    22                           	psect	text9,local,class=CODE,merge=1,delta=2
    23                           	psect	text10,local,class=CODE,merge=1,delta=2
    24                           	psect	text11,local,class=CODE,merge=1,delta=2
    25                           	psect	text12,local,class=CODE,merge=1,delta=2
    26                           	psect	text13,local,class=CODE,merge=1,delta=2
    27                           	psect	intentry,global,class=CODE,delta=2
    28                           	psect	text14,local,class=CODE,merge=1,delta=2
    29                           	psect	text15,local,class=CODE,merge=1,delta=2
    30                           	psect	text16,local,class=CODE,merge=1,delta=2
    31                           	psect	text17,local,class=CODE,merge=1,delta=2
    32                           	psect	text18,local,class=CODE,merge=1,delta=2
    33                           	psect	text19,local,class=CODE,merge=1,delta=2
    34                           	psect	text20,local,class=CODE,merge=1,delta=2
    35                           	psect	text21,local,class=CODE,merge=1,delta=2
    36                           	psect	text22,local,class=CODE,merge=1,delta=2
    37                           	psect	text23,local,class=CODE,merge=1,delta=2
    38                           	psect	text24,local,class=CODE,merge=1,delta=2
    39                           	dabs	1,0x7E,2
    40  0000                     	;# 
    41  0001                     	;# 
    42  0002                     	;# 
    43  0003                     	;# 
    44  0004                     	;# 
    45  0005                     	;# 
    46  0006                     	;# 
    47  0007                     	;# 
    48  0009                     	;# 
    49  000A                     	;# 
    50  000B                     	;# 
    51  000C                     	;# 
    52  000D                     	;# 
    53  000E                     	;# 
    54  000E                     	;# 
    55  000F                     	;# 
    56  0010                     	;# 
    57  0011                     	;# 
    58  0012                     	;# 
    59  0013                     	;# 
    60  0014                     	;# 
    61  0015                     	;# 
    62  0015                     	;# 
    63  0016                     	;# 
    64  0017                     	;# 
    65  0018                     	;# 
    66  0019                     	;# 
    67  001A                     	;# 
    68  001B                     	;# 
    69  001B                     	;# 
    70  001C                     	;# 
    71  001D                     	;# 
    72  001E                     	;# 
    73  001F                     	;# 
    74  0081                     	;# 
    75  0085                     	;# 
    76  0086                     	;# 
    77  0087                     	;# 
    78  0089                     	;# 
    79  008C                     	;# 
    80  008D                     	;# 
    81  008E                     	;# 
    82  008F                     	;# 
    83  0090                     	;# 
    84  0091                     	;# 
    85  0092                     	;# 
    86  0093                     	;# 
    87  0093                     	;# 
    88  0093                     	;# 
    89  0094                     	;# 
    90  0095                     	;# 
    91  0096                     	;# 
    92  0097                     	;# 
    93  0098                     	;# 
    94  0099                     	;# 
    95  009A                     	;# 
    96  009B                     	;# 
    97  009C                     	;# 
    98  009D                     	;# 
    99  009E                     	;# 
   100  009F                     	;# 
   101  0105                     	;# 
   102  0107                     	;# 
   103  0108                     	;# 
   104  0109                     	;# 
   105  010C                     	;# 
   106  010C                     	;# 
   107  010D                     	;# 
   108  010E                     	;# 
   109  010F                     	;# 
   110  0185                     	;# 
   111  0187                     	;# 
   112  0188                     	;# 
   113  0189                     	;# 
   114  018C                     	;# 
   115  018D                     	;# 
   116  0000                     	;# 
   117  0001                     	;# 
   118  0002                     	;# 
   119  0003                     	;# 
   120  0004                     	;# 
   121  0005                     	;# 
   122  0006                     	;# 
   123  0007                     	;# 
   124  0009                     	;# 
   125  000A                     	;# 
   126  000B                     	;# 
   127  000C                     	;# 
   128  000D                     	;# 
   129  000E                     	;# 
   130  000E                     	;# 
   131  000F                     	;# 
   132  0010                     	;# 
   133  0011                     	;# 
   134  0012                     	;# 
   135  0013                     	;# 
   136  0014                     	;# 
   137  0015                     	;# 
   138  0015                     	;# 
   139  0016                     	;# 
   140  0017                     	;# 
   141  0018                     	;# 
   142  0019                     	;# 
   143  001A                     	;# 
   144  001B                     	;# 
   145  001B                     	;# 
   146  001C                     	;# 
   147  001D                     	;# 
   148  001E                     	;# 
   149  001F                     	;# 
   150  0081                     	;# 
   151  0085                     	;# 
   152  0086                     	;# 
   153  0087                     	;# 
   154  0089                     	;# 
   155  008C                     	;# 
   156  008D                     	;# 
   157  008E                     	;# 
   158  008F                     	;# 
   159  0090                     	;# 
   160  0091                     	;# 
   161  0092                     	;# 
   162  0093                     	;# 
   163  0093                     	;# 
   164  0093                     	;# 
   165  0094                     	;# 
   166  0095                     	;# 
   167  0096                     	;# 
   168  0097                     	;# 
   169  0098                     	;# 
   170  0099                     	;# 
   171  009A                     	;# 
   172  009B                     	;# 
   173  009C                     	;# 
   174  009D                     	;# 
   175  009E                     	;# 
   176  009F                     	;# 
   177  0105                     	;# 
   178  0107                     	;# 
   179  0108                     	;# 
   180  0109                     	;# 
   181  010C                     	;# 
   182  010C                     	;# 
   183  010D                     	;# 
   184  010E                     	;# 
   185  010F                     	;# 
   186  0185                     	;# 
   187  0187                     	;# 
   188  0188                     	;# 
   189  0189                     	;# 
   190  018C                     	;# 
   191  018D                     	;# 
   192                           
   193                           	psect	idataBANK0
   194  03FC                     __pidataBANK0:	
   195                           
   196                           ;initializer for _DADO_RX
   197  03FC  34FF               	retlw	255
   198                           
   199                           ;initializer for _buffer
   200  03FD  34FF               	retlw	255
   201                           
   202                           ;initializer for _ok
   203  03FE  34FF               	retlw	255
   204  000E                     _TMR1	set	14
   205  000B                     _INTCON	set	11
   206  0005                     _PORTA	set	5
   207  0006                     _PORTB	set	6
   208  0013                     _SSPBUF	set	19
   209  0014                     _SSPCON	set	20
   210  0010                     _T1CON	set	16
   211  0012                     _T2CON	set	18
   212  005C                     _INTE	set	92
   213  0059                     _INTF	set	89
   214  002C                     _RA4	set	44
   215  002D                     _RA5	set	45
   216  0031                     _RB1	set	49
   217  0032                     _RB2	set	50
   218  0037                     _RB7	set	55
   219  005B                     _RBIE	set	91
   220  0058                     _RBIF	set	88
   221  0038                     _RC0	set	56
   222  0039                     _RC1	set	57
   223  003E                     _RC6	set	62
   224  00A5                     _SSPEN	set	165
   225  0060                     _TMR1IF	set	96
   226  0080                     _TMR1ON	set	128
   227  0061                     _TMR2IF	set	97
   228  0092                     _TMR2ON	set	146
   229  0096                     _IOCB	set	150
   230  0081                     _OPTION_REG	set	129
   231  008F                     _OSCCON	set	143
   232  0092                     _PR2	set	146
   233  0091                     _SSPCON2	set	145
   234  0094                     _SSPSTAT	set	148
   235  0085                     _TRISA	set	133
   236  0086                     _TRISB	set	134
   237  0087                     _TRISC	set	135
   238  04A0                     _BF	set	1184
   239  0460                     _TMR1IE	set	1120
   240  0461                     _TMR2IE	set	1121
   241  043B                     _TRISC3	set	1083
   242  043D                     _TRISC5	set	1085
   243  0188                     _ANSEL	set	392
   244  0189                     _ANSELH	set	393
   245                           
   246                           	psect	strings
   247  0800                     __pstrings:	
   248  0800                     stringtab:	
   249  0800                     __stringtab:	
   250                           
   251                           ;	String table - string pointers are 2 bytes each
   252  0800  1BFF               	btfsc	btemp+1,7
   253  0801  280A               	ljmp	stringcode
   254  0802  1383               	bcf	3,7
   255  0803  187F               	btfsc	btemp+1,0
   256  0804  1783               	bsf	3,7
   257  0805  0800               	movf	0,w
   258  0806  0A84               	incf	4,f
   259  0807  1903               	skipnz
   260  0808  0AFF               	incf	btemp+1,f
   261  0809  0008               	return
   262  080A                     stringcode:	
   263  080A  087F               	movf	btemp+1,w
   264  080B  397F               	andlw	127
   265  080C  008A               	movwf	10
   266  080D  0804               	movf	4,w
   267  080E  0A84               	incf	4,f
   268  080F  1903               	skipnz
   269  0810  0AFF               	incf	btemp+1,f
   270  0811  0082               	movwf	2
   271  0812                     __stringbase:	
   272  0812                     __end_of__stringtab:	
   273                           
   274                           	psect	stringtext
   275  0400                     __pstringtext:	
   276  0400                     __stringdata:	
   277  0400                     STR_54:	
   278  0400  3425               	retlw	37	;'%'
   279  0401  3463               	retlw	99	;'c'
   280  0402  3453               	retlw	83	;'S'
   281  0403  3475               	retlw	117	;'u'
   282  0404  3462               	retlw	98	;'b'
   283  0405  3473               	retlw	115	;'s'
   284  0406  3474               	retlw	116	;'t'
   285  0407  3469               	retlw	105	;'i'
   286  0408  3474               	retlw	116	;'t'
   287  0409  3475               	retlw	117	;'u'
   288  040A  3469               	retlw	105	;'i'
   289  040B  3464               	retlw	100	;'d'
   290  040C  346F               	retlw	111	;'o'
   291  040D  3472               	retlw	114	;'r'
   292  040E  3420               	retlw	32	;' '
   293  040F  3464               	retlw	100	;'d'
   294  0410  3465               	retlw	101	;'e'
   295  0411  340A               	retlw	10
   296  0412  3443               	retlw	67	;'C'
   297  0413  344B               	retlw	75	;'K'
   298  0414  3454               	retlw	84	;'T'
   299  0415  3427               	retlw	39	;'''
   300  0416  3473               	retlw	115	;'s'
   301  0417  3420               	retlw	32	;' '
   302  0418  3469               	retlw	105	;'i'
   303  0419  346E               	retlw	110	;'n'
   304  041A  3474               	retlw	116	;'t'
   305  041B  3465               	retlw	101	;'e'
   306  041C  3467               	retlw	103	;'g'
   307  041D  3472               	retlw	114	;'r'
   308  041E  3461               	retlw	97	;'a'
   309  041F  3464               	retlw	100	;'d'
   310  0420  346F               	retlw	111	;'o'
   311  0421  3473               	retlw	115	;'s'
   312  0422  3400               	retlw	0
   313  0423                     STR_55:	
   314  0423  3420               	retlw	32	;' '
   315  0424  3441               	retlw	65	;'A'
   316  0425  346C               	retlw	108	;'l'
   317  0426  3465               	retlw	101	;'e'
   318  0427  3478               	retlw	120	;'x'
   319  0428  3461               	retlw	97	;'a'
   320  0429  346E               	retlw	110	;'n'
   321  042A  3464               	retlw	100	;'d'
   322  042B  3472               	retlw	114	;'r'
   323  042C  3465               	retlw	101	;'e'
   324  042D  3420               	retlw	32	;' '
   325  042E  344C               	retlw	76	;'L'
   326  042F  3469               	retlw	105	;'i'
   327  0430  346D               	retlw	109	;'m'
   328  0431  3461               	retlw	97	;'a'
   329  0432  340A               	retlw	10
   330  0433  3420               	retlw	32	;' '
   331  0434  3454               	retlw	84	;'T'
   332  0435  3443               	retlw	67	;'C'
   333  0436  3420               	retlw	32	;' '
   334  0437  3432               	retlw	50	;'2'
   335  0438  3430               	retlw	48	;'0'
   336  0439  3431               	retlw	49	;'1'
   337  043A  3433               	retlw	51	;'3'
   338  043B  3420               	retlw	32	;' '
   339  043C  342D               	retlw	45	;'-'
   340  043D  3420               	retlw	32	;' '
   341  043E  3434               	retlw	52	;'4'
   342  043F  3434               	retlw	52	;'4'
   343  0440  3431               	retlw	49	;'1'
   344  0441  3431               	retlw	49	;'1'
   345  0442  3400               	retlw	0
   346  0443                     STR_4:	
   347  0443  3425               	retlw	37	;'%'
   348  0444  3463               	retlw	99	;'c'
   349  0445  3420               	retlw	32	;' '
   350  0446  3420               	retlw	32	;' '
   351  0447  3453               	retlw	83	;'S'
   352  0448  3443               	retlw	67	;'C'
   353  0449  3449               	retlw	73	;'I'
   354  044A  3444               	retlw	68	;'D'
   355  044B  342D               	retlw	45	;'-'
   356  044C  3432               	retlw	50	;'2'
   357  044D  3430               	retlw	48	;'0'
   358  044E  3431               	retlw	49	;'1'
   359  044F  3433               	retlw	51	;'3'
   360  0450  3420               	retlw	32	;' '
   361  0451  3420               	retlw	32	;' '
   362  0452  3420               	retlw	32	;' '
   363  0453  3425               	retlw	37	;'%'
   364  0454  3463               	retlw	99	;'c'
   365  0455  340A               	retlw	10
   366  0456  3400               	retlw	0
   367  0457                     STR_2:	
   368  0457  3425               	retlw	37	;'%'
   369  0458  3463               	retlw	99	;'c'
   370  0459  3420               	retlw	32	;' '
   371  045A  3420               	retlw	32	;' '
   372  045B  3453               	retlw	83	;'S'
   373  045C  3443               	retlw	67	;'C'
   374  045D  3449               	retlw	73	;'I'
   375  045E  3444               	retlw	68	;'D'
   376  045F  342D               	retlw	45	;'-'
   377  0460  3432               	retlw	50	;'2'
   378  0461  3430               	retlw	48	;'0'
   379  0462  3431               	retlw	49	;'1'
   380  0463  3433               	retlw	51	;'3'
   381  0464  3420               	retlw	32	;' '
   382  0465  3420               	retlw	32	;' '
   383  0466  3420               	retlw	32	;' '
   384  0467  3425               	retlw	37	;'%'
   385  0468  3463               	retlw	99	;'c'
   386  0469  3400               	retlw	0
   387  046A                     STR_3:	
   388  046A  340A               	retlw	10
   389  046B  3445               	retlw	69	;'E'
   390  046C  3472               	retlw	114	;'r'
   391  046D  3472               	retlw	114	;'r'
   392  046E  346F               	retlw	111	;'o'
   393  046F  3420               	retlw	32	;' '
   394  0470  3464               	retlw	100	;'d'
   395  0471  3465               	retlw	101	;'e'
   396  0472  3420               	retlw	32	;' '
   397  0473  3467               	retlw	103	;'g'
   398  0474  3472               	retlw	114	;'r'
   399  0475  3461               	retlw	97	;'a'
   400  0476  3476               	retlw	118	;'v'
   401  0477  3461               	retlw	97	;'a'
   402  0478  3463               	retlw	99	;'c'
   403  0479  3461               	retlw	97	;'a'
   404  047A  346F               	retlw	111	;'o'
   405  047B  3400               	retlw	0
   406  047C                     STR_57:	
   407  047C  340A               	retlw	10
   408  047D  3445               	retlw	69	;'E'
   409  047E  3472               	retlw	114	;'r'
   410  047F  3472               	retlw	114	;'r'
   411  0480  346F               	retlw	111	;'o'
   412  0481  3420               	retlw	32	;' '
   413  0482  3464               	retlw	100	;'d'
   414  0483  3465               	retlw	101	;'e'
   415  0484  3420               	retlw	32	;' '
   416  0485  346C               	retlw	108	;'l'
   417  0486  3465               	retlw	101	;'e'
   418  0487  3469               	retlw	105	;'i'
   419  0488  3474               	retlw	116	;'t'
   420  0489  3475               	retlw	117	;'u'
   421  048A  3472               	retlw	114	;'r'
   422  048B  3461               	retlw	97	;'a'
   423  048C  3400               	retlw	0
   424  048D                     STR_24:	
   425  048D  340A               	retlw	10
   426  048E  3450               	retlw	80	;'P'
   427  048F  346F               	retlw	111	;'o'
   428  0490  3472               	retlw	114	;'r'
   429  0491  3474               	retlw	116	;'t'
   430  0492  3461               	retlw	97	;'a'
   431  0493  3420               	retlw	32	;' '
   432  0494  3431               	retlw	49	;'1'
   433  0495  343A               	retlw	58	;':'
   434  0496  3420               	retlw	32	;' '
   435  0497  344E               	retlw	78	;'N'
   436  0498  3441               	retlw	65	;'A'
   437  0499  344E               	retlw	78	;'N'
   438  049A  3444               	retlw	68	;'D'
   439  049B  3400               	retlw	0
   440  049C                     STR_32:	
   441  049C  340A               	retlw	10
   442  049D  3450               	retlw	80	;'P'
   443  049E  346F               	retlw	111	;'o'
   444  049F  3472               	retlw	114	;'r'
   445  04A0  3474               	retlw	116	;'t'
   446  04A1  3461               	retlw	97	;'a'
   447  04A2  3420               	retlw	32	;' '
   448  04A3  3432               	retlw	50	;'2'
   449  04A4  343A               	retlw	58	;':'
   450  04A5  3420               	retlw	32	;' '
   451  04A6  344E               	retlw	78	;'N'
   452  04A7  3441               	retlw	65	;'A'
   453  04A8  344E               	retlw	78	;'N'
   454  04A9  3444               	retlw	68	;'D'
   455  04AA  3400               	retlw	0
   456  04AB                     STR_40:	
   457  04AB  340A               	retlw	10
   458  04AC  3450               	retlw	80	;'P'
   459  04AD  346F               	retlw	111	;'o'
   460  04AE  3472               	retlw	114	;'r'
   461  04AF  3474               	retlw	116	;'t'
   462  04B0  3461               	retlw	97	;'a'
   463  04B1  3420               	retlw	32	;' '
   464  04B2  3433               	retlw	51	;'3'
   465  04B3  343A               	retlw	58	;':'
   466  04B4  3420               	retlw	32	;' '
   467  04B5  344E               	retlw	78	;'N'
   468  04B6  3441               	retlw	65	;'A'
   469  04B7  344E               	retlw	78	;'N'
   470  04B8  3444               	retlw	68	;'D'
   471  04B9  3400               	retlw	0
   472  04BA                     STR_48:	
   473  04BA  340A               	retlw	10
   474  04BB  3450               	retlw	80	;'P'
   475  04BC  346F               	retlw	111	;'o'
   476  04BD  3472               	retlw	114	;'r'
   477  04BE  3474               	retlw	116	;'t'
   478  04BF  3461               	retlw	97	;'a'
   479  04C0  3420               	retlw	32	;' '
   480  04C1  3434               	retlw	52	;'4'
   481  04C2  343A               	retlw	58	;':'
   482  04C3  3420               	retlw	32	;' '
   483  04C4  344E               	retlw	78	;'N'
   484  04C5  3441               	retlw	65	;'A'
   485  04C6  344E               	retlw	78	;'N'
   486  04C7  3444               	retlw	68	;'D'
   487  04C8  3400               	retlw	0
   488  04C9                     STR_28:	
   489  04C9  340A               	retlw	10
   490  04CA  3450               	retlw	80	;'P'
   491  04CB  346F               	retlw	111	;'o'
   492  04CC  3472               	retlw	114	;'r'
   493  04CD  3474               	retlw	116	;'t'
   494  04CE  3461               	retlw	97	;'a'
   495  04CF  3420               	retlw	32	;' '
   496  04D0  3431               	retlw	49	;'1'
   497  04D1  343A               	retlw	58	;':'
   498  04D2  3420               	retlw	32	;' '
   499  04D3  3458               	retlw	88	;'X'
   500  04D4  344E               	retlw	78	;'N'
   501  04D5  344F               	retlw	79	;'O'
   502  04D6  3452               	retlw	82	;'R'
   503  04D7  3400               	retlw	0
   504  04D8                     STR_36:	
   505  04D8  340A               	retlw	10
   506  04D9  3450               	retlw	80	;'P'
   507  04DA  346F               	retlw	111	;'o'
   508  04DB  3472               	retlw	114	;'r'
   509  04DC  3474               	retlw	116	;'t'
   510  04DD  3461               	retlw	97	;'a'
   511  04DE  3420               	retlw	32	;' '
   512  04DF  3432               	retlw	50	;'2'
   513  04E0  343A               	retlw	58	;':'
   514  04E1  3420               	retlw	32	;' '
   515  04E2  3458               	retlw	88	;'X'
   516  04E3  344E               	retlw	78	;'N'
   517  04E4  344F               	retlw	79	;'O'
   518  04E5  3452               	retlw	82	;'R'
   519  04E6  3400               	retlw	0
   520  04E7                     STR_44:	
   521  04E7  340A               	retlw	10
   522  04E8  3450               	retlw	80	;'P'
   523  04E9  346F               	retlw	111	;'o'
   524  04EA  3472               	retlw	114	;'r'
   525  04EB  3474               	retlw	116	;'t'
   526  04EC  3461               	retlw	97	;'a'
   527  04ED  3420               	retlw	32	;' '
   528  04EE  3433               	retlw	51	;'3'
   529  04EF  343A               	retlw	58	;':'
   530  04F0  3420               	retlw	32	;' '
   531  04F1  3458               	retlw	88	;'X'
   532  04F2  344E               	retlw	78	;'N'
   533  04F3  344F               	retlw	79	;'O'
   534  04F4  3452               	retlw	82	;'R'
   535  04F5  3400               	retlw	0
   536  04F6                     STR_52:	
   537  04F6  340A               	retlw	10
   538  04F7  3450               	retlw	80	;'P'
   539  04F8  346F               	retlw	111	;'o'
   540  04F9  3472               	retlw	114	;'r'
   541  04FA  3474               	retlw	116	;'t'
   542  04FB  3461               	retlw	97	;'a'
   543  04FC  3420               	retlw	32	;' '
   544  04FD  3434               	retlw	52	;'4'
   545  04FE  343A               	retlw	58	;':'
   546  04FF  3420               	retlw	32	;' '
   547  0500  3458               	retlw	88	;'X'
   548  0501  344E               	retlw	78	;'N'
   549  0502  344F               	retlw	79	;'O'
   550  0503  3452               	retlw	82	;'R'
   551  0504  3400               	retlw	0
   552  0505                     STR_19:	
   553  0505  3420               	retlw	32	;' '
   554  0506  3453               	retlw	83	;'S'
   555  0507  3465               	retlw	101	;'e'
   556  0508  346C               	retlw	108	;'l'
   557  0509  3465               	retlw	101	;'e'
   558  050A  3463               	retlw	99	;'c'
   559  050B  342E               	retlw	46	;'.'
   560  050C  3420               	retlw	32	;' '
   561  050D  3470               	retlw	112	;'p'
   562  050E  346F               	retlw	111	;'o'
   563  050F  3472               	retlw	114	;'r'
   564  0510  3474               	retlw	116	;'t'
   565  0511  3461               	retlw	97	;'a'
   566  0512  3473               	retlw	115	;'s'
   567  0513  3400               	retlw	0
   568  0514                     STR_1:	
   569  0514  3420               	retlw	32	;' '
   570  0515  3420               	retlw	32	;' '
   571  0516  3420               	retlw	32	;' '
   572  0517  3441               	retlw	65	;'A'
   573  0518  3474               	retlw	116	;'t'
   574  0519  3425               	retlw	37	;'%'
   575  051A  3463               	retlw	99	;'c'
   576  051B  3420               	retlw	32	;' '
   577  051C  346D               	retlw	109	;'m'
   578  051D  3461               	retlw	97	;'a'
   579  051E  3469               	retlw	105	;'i'
   580  051F  3473               	retlw	115	;'s'
   581  0520  3421               	retlw	33	;'!'
   582  0521  3400               	retlw	0
   583  0522                     STR_23:	
   584  0522  340A               	retlw	10
   585  0523  3450               	retlw	80	;'P'
   586  0524  346F               	retlw	111	;'o'
   587  0525  3472               	retlw	114	;'r'
   588  0526  3474               	retlw	116	;'t'
   589  0527  3461               	retlw	97	;'a'
   590  0528  3420               	retlw	32	;' '
   591  0529  3431               	retlw	49	;'1'
   592  052A  343A               	retlw	58	;':'
   593  052B  3420               	retlw	32	;' '
   594  052C  3441               	retlw	65	;'A'
   595  052D  344E               	retlw	78	;'N'
   596  052E  3444               	retlw	68	;'D'
   597  052F  3400               	retlw	0
   598  0530                     STR_31:	
   599  0530  340A               	retlw	10
   600  0531  3450               	retlw	80	;'P'
   601  0532  346F               	retlw	111	;'o'
   602  0533  3472               	retlw	114	;'r'
   603  0534  3474               	retlw	116	;'t'
   604  0535  3461               	retlw	97	;'a'
   605  0536  3420               	retlw	32	;' '
   606  0537  3432               	retlw	50	;'2'
   607  0538  343A               	retlw	58	;':'
   608  0539  3420               	retlw	32	;' '
   609  053A  3441               	retlw	65	;'A'
   610  053B  344E               	retlw	78	;'N'
   611  053C  3444               	retlw	68	;'D'
   612  053D  3400               	retlw	0
   613  053E                     STR_39:	
   614  053E  340A               	retlw	10
   615  053F  3450               	retlw	80	;'P'
   616  0540  346F               	retlw	111	;'o'
   617  0541  3472               	retlw	114	;'r'
   618  0542  3474               	retlw	116	;'t'
   619  0543  3461               	retlw	97	;'a'
   620  0544  3420               	retlw	32	;' '
   621  0545  3433               	retlw	51	;'3'
   622  0546  343A               	retlw	58	;':'
   623  0547  3420               	retlw	32	;' '
   624  0548  3441               	retlw	65	;'A'
   625  0549  344E               	retlw	78	;'N'
   626  054A  3444               	retlw	68	;'D'
   627  054B  3400               	retlw	0
   628  054C                     STR_47:	
   629  054C  340A               	retlw	10
   630  054D  3450               	retlw	80	;'P'
   631  054E  346F               	retlw	111	;'o'
   632  054F  3472               	retlw	114	;'r'
   633  0550  3474               	retlw	116	;'t'
   634  0551  3461               	retlw	97	;'a'
   635  0552  3420               	retlw	32	;' '
   636  0553  3434               	retlw	52	;'4'
   637  0554  343A               	retlw	58	;':'
   638  0555  3420               	retlw	32	;' '
   639  0556  3441               	retlw	65	;'A'
   640  0557  344E               	retlw	78	;'N'
   641  0558  3444               	retlw	68	;'D'
   642  0559  3400               	retlw	0
   643  055A                     STR_26:	
   644  055A  340A               	retlw	10
   645  055B  3450               	retlw	80	;'P'
   646  055C  346F               	retlw	111	;'o'
   647  055D  3472               	retlw	114	;'r'
   648  055E  3474               	retlw	116	;'t'
   649  055F  3461               	retlw	97	;'a'
   650  0560  3420               	retlw	32	;' '
   651  0561  3431               	retlw	49	;'1'
   652  0562  343A               	retlw	58	;':'
   653  0563  3420               	retlw	32	;' '
   654  0564  344E               	retlw	78	;'N'
   655  0565  344F               	retlw	79	;'O'
   656  0566  3452               	retlw	82	;'R'
   657  0567  3400               	retlw	0
   658  0568                     STR_34:	
   659  0568  340A               	retlw	10
   660  0569  3450               	retlw	80	;'P'
   661  056A  346F               	retlw	111	;'o'
   662  056B  3472               	retlw	114	;'r'
   663  056C  3474               	retlw	116	;'t'
   664  056D  3461               	retlw	97	;'a'
   665  056E  3420               	retlw	32	;' '
   666  056F  3432               	retlw	50	;'2'
   667  0570  343A               	retlw	58	;':'
   668  0571  3420               	retlw	32	;' '
   669  0572  344E               	retlw	78	;'N'
   670  0573  344F               	retlw	79	;'O'
   671  0574  3452               	retlw	82	;'R'
   672  0575  3400               	retlw	0
   673  0576                     STR_42:	
   674  0576  340A               	retlw	10
   675  0577  3450               	retlw	80	;'P'
   676  0578  346F               	retlw	111	;'o'
   677  0579  3472               	retlw	114	;'r'
   678  057A  3474               	retlw	116	;'t'
   679  057B  3461               	retlw	97	;'a'
   680  057C  3420               	retlw	32	;' '
   681  057D  3433               	retlw	51	;'3'
   682  057E  343A               	retlw	58	;':'
   683  057F  3420               	retlw	32	;' '
   684  0580  344E               	retlw	78	;'N'
   685  0581  344F               	retlw	79	;'O'
   686  0582  3452               	retlw	82	;'R'
   687  0583  3400               	retlw	0
   688  0584                     STR_50:	
   689  0584  340A               	retlw	10
   690  0585  3450               	retlw	80	;'P'
   691  0586  346F               	retlw	111	;'o'
   692  0587  3472               	retlw	114	;'r'
   693  0588  3474               	retlw	116	;'t'
   694  0589  3461               	retlw	97	;'a'
   695  058A  3420               	retlw	32	;' '
   696  058B  3434               	retlw	52	;'4'
   697  058C  343A               	retlw	58	;':'
   698  058D  3420               	retlw	32	;' '
   699  058E  344E               	retlw	78	;'N'
   700  058F  344F               	retlw	79	;'O'
   701  0590  3452               	retlw	82	;'R'
   702  0591  3400               	retlw	0
   703  0592                     STR_27:	
   704  0592  340A               	retlw	10
   705  0593  3450               	retlw	80	;'P'
   706  0594  346F               	retlw	111	;'o'
   707  0595  3472               	retlw	114	;'r'
   708  0596  3474               	retlw	116	;'t'
   709  0597  3461               	retlw	97	;'a'
   710  0598  3420               	retlw	32	;' '
   711  0599  3431               	retlw	49	;'1'
   712  059A  343A               	retlw	58	;':'
   713  059B  3420               	retlw	32	;' '
   714  059C  3458               	retlw	88	;'X'
   715  059D  344F               	retlw	79	;'O'
   716  059E  3452               	retlw	82	;'R'
   717  059F  3400               	retlw	0
   718  05A0                     STR_35:	
   719  05A0  340A               	retlw	10
   720  05A1  3450               	retlw	80	;'P'
   721  05A2  346F               	retlw	111	;'o'
   722  05A3  3472               	retlw	114	;'r'
   723  05A4  3474               	retlw	116	;'t'
   724  05A5  3461               	retlw	97	;'a'
   725  05A6  3420               	retlw	32	;' '
   726  05A7  3432               	retlw	50	;'2'
   727  05A8  343A               	retlw	58	;':'
   728  05A9  3420               	retlw	32	;' '
   729  05AA  3458               	retlw	88	;'X'
   730  05AB  344F               	retlw	79	;'O'
   731  05AC  3452               	retlw	82	;'R'
   732  05AD  3400               	retlw	0
   733  05AE                     STR_43:	
   734  05AE  340A               	retlw	10
   735  05AF  3450               	retlw	80	;'P'
   736  05B0  346F               	retlw	111	;'o'
   737  05B1  3472               	retlw	114	;'r'
   738  05B2  3474               	retlw	116	;'t'
   739  05B3  3461               	retlw	97	;'a'
   740  05B4  3420               	retlw	32	;' '
   741  05B5  3433               	retlw	51	;'3'
   742  05B6  343A               	retlw	58	;':'
   743  05B7  3420               	retlw	32	;' '
   744  05B8  3458               	retlw	88	;'X'
   745  05B9  344F               	retlw	79	;'O'
   746  05BA  3452               	retlw	82	;'R'
   747  05BB  3400               	retlw	0
   748  05BC                     STR_51:	
   749  05BC  340A               	retlw	10
   750  05BD  3450               	retlw	80	;'P'
   751  05BE  346F               	retlw	111	;'o'
   752  05BF  3472               	retlw	114	;'r'
   753  05C0  3474               	retlw	116	;'t'
   754  05C1  3461               	retlw	97	;'a'
   755  05C2  3420               	retlw	32	;' '
   756  05C3  3434               	retlw	52	;'4'
   757  05C4  343A               	retlw	58	;':'
   758  05C5  3420               	retlw	32	;' '
   759  05C6  3458               	retlw	88	;'X'
   760  05C7  344F               	retlw	79	;'O'
   761  05C8  3452               	retlw	82	;'R'
   762  05C9  3400               	retlw	0
   763  05CA                     STR_29:	
   764  05CA  340A               	retlw	10
   765  05CB  3450               	retlw	80	;'P'
   766  05CC  346F               	retlw	111	;'o'
   767  05CD  3472               	retlw	114	;'r'
   768  05CE  3474               	retlw	116	;'t'
   769  05CF  3461               	retlw	97	;'a'
   770  05D0  3420               	retlw	32	;' '
   771  05D1  3431               	retlw	49	;'1'
   772  05D2  343A               	retlw	58	;':'
   773  05D3  3420               	retlw	32	;' '
   774  05D4  344E               	retlw	78	;'N'
   775  05D5  344F               	retlw	79	;'O'
   776  05D6  3454               	retlw	84	;'T'
   777  05D7  3400               	retlw	0
   778  05D8                     STR_37:	
   779  05D8  340A               	retlw	10
   780  05D9  3450               	retlw	80	;'P'
   781  05DA  346F               	retlw	111	;'o'
   782  05DB  3472               	retlw	114	;'r'
   783  05DC  3474               	retlw	116	;'t'
   784  05DD  3461               	retlw	97	;'a'
   785  05DE  3420               	retlw	32	;' '
   786  05DF  3432               	retlw	50	;'2'
   787  05E0  343A               	retlw	58	;':'
   788  05E1  3420               	retlw	32	;' '
   789  05E2  344E               	retlw	78	;'N'
   790  05E3  344F               	retlw	79	;'O'
   791  05E4  3454               	retlw	84	;'T'
   792  05E5  3400               	retlw	0
   793  05E6                     STR_45:	
   794  05E6  340A               	retlw	10
   795  05E7  3450               	retlw	80	;'P'
   796  05E8  346F               	retlw	111	;'o'
   797  05E9  3472               	retlw	114	;'r'
   798  05EA  3474               	retlw	116	;'t'
   799  05EB  3461               	retlw	97	;'a'
   800  05EC  3420               	retlw	32	;' '
   801  05ED  3433               	retlw	51	;'3'
   802  05EE  343A               	retlw	58	;':'
   803  05EF  3420               	retlw	32	;' '
   804  05F0  344E               	retlw	78	;'N'
   805  05F1  344F               	retlw	79	;'O'
   806  05F2  3454               	retlw	84	;'T'
   807  05F3  3400               	retlw	0
   808  05F4                     STR_53:	
   809  05F4  340A               	retlw	10
   810  05F5  3450               	retlw	80	;'P'
   811  05F6  346F               	retlw	111	;'o'
   812  05F7  3472               	retlw	114	;'r'
   813  05F8  3474               	retlw	116	;'t'
   814  05F9  3461               	retlw	97	;'a'
   815  05FA  3420               	retlw	32	;' '
   816  05FB  3434               	retlw	52	;'4'
   817  05FC  343A               	retlw	58	;':'
   818  05FD  3420               	retlw	32	;' '
   819  05FE  344E               	retlw	78	;'N'
   820  05FF  344F               	retlw	79	;'O'
   821  0600  3454               	retlw	84	;'T'
   822  0601  3400               	retlw	0
   823  0602                     STR_25:	
   824  0602  340A               	retlw	10
   825  0603  3450               	retlw	80	;'P'
   826  0604  346F               	retlw	111	;'o'
   827  0605  3472               	retlw	114	;'r'
   828  0606  3474               	retlw	116	;'t'
   829  0607  3461               	retlw	97	;'a'
   830  0608  3420               	retlw	32	;' '
   831  0609  3431               	retlw	49	;'1'
   832  060A  343A               	retlw	58	;':'
   833  060B  3420               	retlw	32	;' '
   834  060C  344F               	retlw	79	;'O'
   835  060D  3452               	retlw	82	;'R'
   836  060E  3400               	retlw	0
   837  060F                     STR_33:	
   838  060F  340A               	retlw	10
   839  0610  3450               	retlw	80	;'P'
   840  0611  346F               	retlw	111	;'o'
   841  0612  3472               	retlw	114	;'r'
   842  0613  3474               	retlw	116	;'t'
   843  0614  3461               	retlw	97	;'a'
   844  0615  3420               	retlw	32	;' '
   845  0616  3432               	retlw	50	;'2'
   846  0617  343A               	retlw	58	;':'
   847  0618  3420               	retlw	32	;' '
   848  0619  344F               	retlw	79	;'O'
   849  061A  3452               	retlw	82	;'R'
   850  061B  3400               	retlw	0
   851  061C                     STR_41:	
   852  061C  340A               	retlw	10
   853  061D  3450               	retlw	80	;'P'
   854  061E  346F               	retlw	111	;'o'
   855  061F  3472               	retlw	114	;'r'
   856  0620  3474               	retlw	116	;'t'
   857  0621  3461               	retlw	97	;'a'
   858  0622  3420               	retlw	32	;' '
   859  0623  3433               	retlw	51	;'3'
   860  0624  343A               	retlw	58	;':'
   861  0625  3420               	retlw	32	;' '
   862  0626  344F               	retlw	79	;'O'
   863  0627  3452               	retlw	82	;'R'
   864  0628  3400               	retlw	0
   865  0629                     STR_49:	
   866  0629  340A               	retlw	10
   867  062A  3450               	retlw	80	;'P'
   868  062B  346F               	retlw	111	;'o'
   869  062C  3472               	retlw	114	;'r'
   870  062D  3474               	retlw	116	;'t'
   871  062E  3461               	retlw	97	;'a'
   872  062F  3420               	retlw	32	;' '
   873  0630  3434               	retlw	52	;'4'
   874  0631  343A               	retlw	58	;':'
   875  0632  3420               	retlw	32	;' '
   876  0633  344F               	retlw	79	;'O'
   877  0634  3452               	retlw	82	;'R'
   878  0635  3400               	retlw	0
   879  0636                     STR_18:	
   880  0636  3420               	retlw	32	;' '
   881  0637  3420               	retlw	32	;' '
   882  0638  3420               	retlw	32	;' '
   883  0639  3420               	retlw	32	;' '
   884  063A  3444               	retlw	68	;'D'
   885  063B  3465               	retlw	101	;'e'
   886  063C  3473               	retlw	115	;'s'
   887  063D  346C               	retlw	108	;'l'
   888  063E  3469               	retlw	105	;'i'
   889  063F  3467               	retlw	103	;'g'
   890  0640  3461               	retlw	97	;'a'
   891  0641  3472               	retlw	114	;'r'
   892  0642  3400               	retlw	0
   893  0643                     STR_11:	
   894  0643  3420               	retlw	32	;' '
   895  0644  3420               	retlw	32	;' '
   896  0645  3420               	retlw	32	;' '
   897  0646  3420               	retlw	32	;' '
   898  0647  3420               	retlw	32	;' '
   899  0648  3434               	retlw	52	;'4'
   900  0649  3430               	retlw	48	;'0'
   901  064A  3432               	retlw	50	;'2'
   902  064B  3437               	retlw	55	;'7'
   903  064C  342A               	retlw	42	;'*'
   904  064D  3400               	retlw	0
   905  064E                     STR_15:	
   906  064E  3420               	retlw	32	;' '
   907  064F  3420               	retlw	32	;' '
   908  0650  3420               	retlw	32	;' '
   909  0651  3420               	retlw	32	;' '
   910  0652  3420               	retlw	32	;' '
   911  0653  3437               	retlw	55	;'7'
   912  0654  3434               	retlw	52	;'4'
   913  0655  3431               	retlw	49	;'1'
   914  0656  3439               	retlw	57	;'9'
   915  0657  3431               	retlw	49	;'1'
   916  0658  3400               	retlw	0
   917  0659                     STR_16:	
   918  0659  3420               	retlw	32	;' '
   919  065A  3420               	retlw	32	;' '
   920  065B  3420               	retlw	32	;' '
   921  065C  3420               	retlw	32	;' '
   922  065D  3420               	retlw	32	;' '
   923  065E  3437               	retlw	55	;'7'
   924  065F  3434               	retlw	52	;'4'
   925  0660  3431               	retlw	49	;'1'
   926  0661  3439               	retlw	57	;'9'
   927  0662  3432               	retlw	50	;'2'
   928  0663  3400               	retlw	0
   929  0664                     STR_14:	
   930  0664  3420               	retlw	32	;' '
   931  0665  3420               	retlw	32	;' '
   932  0666  3420               	retlw	32	;' '
   933  0667  3420               	retlw	32	;' '
   934  0668  3420               	retlw	32	;' '
   935  0669  3437               	retlw	55	;'7'
   936  066A  3434               	retlw	52	;'4'
   937  066B  3431               	retlw	49	;'1'
   938  066C  3436               	retlw	54	;'6'
   939  066D  3435               	retlw	53	;'5'
   940  066E  3400               	retlw	0
   941  066F                     STR_5:	
   942  066F  3420               	retlw	32	;' '
   943  0670  3420               	retlw	32	;' '
   944  0671  3420               	retlw	32	;' '
   945  0672  3420               	retlw	32	;' '
   946  0673  3420               	retlw	32	;' '
   947  0674  3437               	retlw	55	;'7'
   948  0675  3434               	retlw	52	;'4'
   949  0676  3430               	retlw	48	;'0'
   950  0677  3430               	retlw	48	;'0'
   951  0678  3400               	retlw	0
   952  0679                     STR_6:	
   953  0679  3420               	retlw	32	;' '
   954  067A  3420               	retlw	32	;' '
   955  067B  3420               	retlw	32	;' '
   956  067C  3420               	retlw	32	;' '
   957  067D  3420               	retlw	32	;' '
   958  067E  3437               	retlw	55	;'7'
   959  067F  3434               	retlw	52	;'4'
   960  0680  3430               	retlw	48	;'0'
   961  0681  3432               	retlw	50	;'2'
   962  0682  3400               	retlw	0
   963  0683                     STR_9:	
   964  0683  3420               	retlw	32	;' '
   965  0684  3420               	retlw	32	;' '
   966  0685  3420               	retlw	32	;' '
   967  0686  3420               	retlw	32	;' '
   968  0687  3420               	retlw	32	;' '
   969  0688  3437               	retlw	55	;'7'
   970  0689  3434               	retlw	52	;'4'
   971  068A  3433               	retlw	51	;'3'
   972  068B  3432               	retlw	50	;'2'
   973  068C  3400               	retlw	0
   974  068D                     STR_7:	
   975  068D  3420               	retlw	32	;' '
   976  068E  3420               	retlw	32	;' '
   977  068F  3420               	retlw	32	;' '
   978  0690  3420               	retlw	32	;' '
   979  0691  3420               	retlw	32	;' '
   980  0692  3437               	retlw	55	;'7'
   981  0693  3434               	retlw	52	;'4'
   982  0694  3430               	retlw	48	;'0'
   983  0695  3434               	retlw	52	;'4'
   984  0696  3400               	retlw	0
   985  0697                     STR_12:	
   986  0697  3420               	retlw	32	;' '
   987  0698  3420               	retlw	32	;' '
   988  0699  3420               	retlw	32	;' '
   989  069A  3420               	retlw	32	;' '
   990  069B  3420               	retlw	32	;' '
   991  069C  3437               	retlw	55	;'7'
   992  069D  3434               	retlw	52	;'4'
   993  069E  3437               	retlw	55	;'7'
   994  069F  3434               	retlw	52	;'4'
   995  06A0  3400               	retlw	0
   996  06A1                     STR_13:	
   997  06A1  3420               	retlw	32	;' '
   998  06A2  3420               	retlw	32	;' '
   999  06A3  3420               	retlw	32	;' '
  1000  06A4  3420               	retlw	32	;' '
  1001  06A5  3420               	retlw	32	;' '
  1002  06A6  3437               	retlw	55	;'7'
  1003  06A7  3434               	retlw	52	;'4'
  1004  06A8  3438               	retlw	56	;'8'
  1005  06A9  3436               	retlw	54	;'6'
  1006  06AA  3400               	retlw	0
  1007  06AB                     STR_10:	
  1008  06AB  3420               	retlw	32	;' '
  1009  06AC  3420               	retlw	32	;' '
  1010  06AD  3420               	retlw	32	;' '
  1011  06AE  3420               	retlw	32	;' '
  1012  06AF  3420               	retlw	32	;' '
  1013  06B0  3437               	retlw	55	;'7'
  1014  06B1  3434               	retlw	52	;'4'
  1015  06B2  3434               	retlw	52	;'4'
  1016  06B3  3437               	retlw	55	;'7'
  1017  06B4  3400               	retlw	0
  1018  06B5                     STR_8:	
  1019  06B5  3420               	retlw	32	;' '
  1020  06B6  3420               	retlw	32	;' '
  1021  06B7  3420               	retlw	32	;' '
  1022  06B8  3420               	retlw	32	;' '
  1023  06B9  3420               	retlw	32	;' '
  1024  06BA  3437               	retlw	55	;'7'
  1025  06BB  3434               	retlw	52	;'4'
  1026  06BC  3430               	retlw	48	;'0'
  1027  06BD  3438               	retlw	56	;'8'
  1028  06BE  3400               	retlw	0
  1029  06BF                     STR_21:	
  1030  06BF  3420               	retlw	32	;' '
  1031  06C0  3420               	retlw	32	;' '
  1032  06C1  3420               	retlw	32	;' '
  1033  06C2  3445               	retlw	69	;'E'
  1034  06C3  3452               	retlw	82	;'R'
  1035  06C4  3452               	retlw	82	;'R'
  1036  06C5  344F               	retlw	79	;'O'
  1037  06C6  3400               	retlw	0
  1038  06C7                     __end_of__stringdata:	
  1039                           
  1040                           ; #config settings
  1041  0000                     
  1042                           	psect	cinit
  1043  0982                     start_initialization:	
  1044  0982                     __initialization:	
  1045                           
  1046                           ; Clear objects allocated to BITBANK0
  1047  0982  01C7               	clrf	(__pbitbssBANK0/(0+8))& (0+127)
  1048                           
  1049                           ; Clear objects allocated to BANK0
  1050  0983  01C8               	clrf	__pbssBANK0& (0+127)
  1051  0984  01C9               	clrf	(__pbssBANK0+1)& (0+127)
  1052  0985  01CA               	clrf	(__pbssBANK0+2)& (0+127)
  1053  0986  01CB               	clrf	(__pbssBANK0+3)& (0+127)
  1054  0987  01CC               	clrf	(__pbssBANK0+4)& (0+127)
  1055                           
  1056                           ; Initialize objects allocated to BANK0
  1057  0988  120A  118A  23FC   	fcall	__pidataBANK0	;fetch initializer
      +       120A  158A         
  1058  098D  00CD               	movwf	__pdataBANK0& (0+127)
  1059  098E  120A  118A  23FD   	fcall	__pidataBANK0+1	;fetch initializer
      +       120A  158A         
  1060  0993  00CE               	movwf	(__pdataBANK0+1)& (0+127)
  1061  0994  120A  118A  23FE   	fcall	__pidataBANK0+2	;fetch initializer
  1062  0997  00CF               	movwf	(__pdataBANK0+2)& (0+127)
  1063  0998                     end_of_initialization:	
  1064                           ;End of C runtime variable initialization code
  1065                           
  1066  0998                     __end_of__initialization:	
  1067  0998  0183               	clrf	3
  1068  0999  120A  158A  2AA4   	ljmp	_main	;jump to C main() function
  1069                           
  1070                           	psect	bitbssBANK0
  1071  0238                     __pbitbssBANK0:	
  1072  0238                     _ON:	
  1073  0238                     	ds	1
  1074  0239                     _enter:	
  1075  0239                     	ds	1
  1076  023A                     _oi:	
  1077  023A                     	ds	1
  1078  023B                     _rec:	
  1079  023B                     	ds	1
  1080  023C                     _selec_portas:	
  1081  023C                     	ds	1
  1082                           
  1083                           	psect	bssBANK0
  1084  0048                     __pbssBANK0:	
  1085  0048                     _cont:	
  1086  0048                     	ds	1
  1087  0049                     _cont_timer:	
  1088  0049                     	ds	1
  1089  004A                     _portas_1:	
  1090  004A                     	ds	1
  1091  004B                     _portas_2:	
  1092  004B                     	ds	1
  1093  004C                     _posicao:	
  1094  004C                     	ds	1
  1095                           
  1096                           	psect	dataBANK0
  1097  004D                     __pdataBANK0:	
  1098  004D                     _DADO_RX:	
  1099  004D                     	ds	1
  1100  004E                     _buffer:	
  1101  004E                     	ds	1
  1102  004F                     _ok:	
  1103  004F                     	ds	1
  1104                           
  1105                           	psect	cstackCOMMON
  1106  0070                     __pcstackCOMMON:	
  1107  0070                     ?_lcd_clear:	
  1108  0070                     ?_lcd_init:	
  1109                           ; 0 bytes @ 0x0
  1110                           
  1111  0070                     ?_lcd_goto:	
  1112                           ; 0 bytes @ 0x0
  1113                           
  1114  0070                     ?_spi_init:	
  1115                           ; 0 bytes @ 0x0
  1116                           
  1117  0070                     ?_acao:	
  1118                           ; 0 bytes @ 0x0
  1119                           
  1120  0070                     ?_menu:	
  1121                           ; 0 bytes @ 0x0
  1122                           
  1123  0070                     ?_bip:	
  1124                           ; 0 bytes @ 0x0
  1125                           
  1126  0070                     ?_principal:	
  1127                           ; 0 bytes @ 0x0
  1128                           
  1129  0070                     ?_inicializacao:	
  1130                           ; 0 bytes @ 0x0
  1131                           
  1132  0070                     ?_xandi:	
  1133                           ; 0 bytes @ 0x0
  1134                           
  1135  0070                     ?_main:	
  1136                           ; 0 bytes @ 0x0
  1137                           
  1138  0070                     ?_lcd_write:	
  1139                           ; 0 bytes @ 0x0
  1140                           
  1141  0070                     ?_lcd_putc:	
  1142                           ; 0 bytes @ 0x0
  1143                           
  1144  0070                     ?_putch:	
  1145                           ; 0 bytes @ 0x0
  1146                           
  1147  0070                     ??i1_spi_read:	
  1148                           ; 0 bytes @ 0x0
  1149                           
  1150  0070                     ?i1_menu:	
  1151                           ; 0 bytes @ 0x0
  1152                           
  1153  0070                     ?i1_bip:	
  1154                           ; 0 bytes @ 0x0
  1155                           
  1156  0070                     ??i1_bip:	
  1157                           ; 0 bytes @ 0x0
  1158                           
  1159  0070                     ?i1_lcd_write:	
  1160                           ; 0 bytes @ 0x0
  1161                           
  1162  0070                     ??i1_lcd_write:	
  1163                           ; 0 bytes @ 0x0
  1164                           
  1165  0070                     ?i1_lcd_clear:	
  1166                           ; 0 bytes @ 0x0
  1167                           
  1168  0070                     ?i1_lcd_putc:	
  1169                           ; 0 bytes @ 0x0
  1170                           
  1171  0070                     ?i1_lcd_goto:	
  1172                           ; 0 bytes @ 0x0
  1173                           
  1174  0070                     ?i1_putch:	
  1175                           ; 0 bytes @ 0x0
  1176                           
  1177  0070                     ?_spi_read:	
  1178                           ; 0 bytes @ 0x0
  1179                           
  1180  0070                     ?i1_spi_read:	
  1181                           ; 1 bytes @ 0x0
  1182                           
  1183                           
  1184                           ; 1 bytes @ 0x0
  1185  0070                     	ds	1
  1186  0071                     i1spi_read@dado:	
  1187                           
  1188                           ; 1 bytes @ 0x1
  1189  0071                     	ds	1
  1190  0072                     i1spi_read@rec:	
  1191  0072                     i1lcd_write@c:	
  1192                           ; 1 bytes @ 0x2
  1193                           
  1194                           
  1195                           ; 1 bytes @ 0x2
  1196  0072                     	ds	1
  1197  0073                     ??i1_lcd_clear:	
  1198  0073                     ??i1_lcd_goto:	
  1199                           ; 0 bytes @ 0x3
  1200                           
  1201  0073                     i1lcd_goto@pos:	
  1202                           ; 0 bytes @ 0x3
  1203                           
  1204                           
  1205                           ; 1 bytes @ 0x3
  1206  0073                     	ds	2
  1207  0075                     ??i1_lcd_putc:	
  1208  0075                     i1lcd_putc@c:	
  1209                           ; 0 bytes @ 0x5
  1210                           
  1211                           
  1212                           ; 1 bytes @ 0x5
  1213  0075                     	ds	1
  1214  0076                     ??i1_putch:	
  1215  0076                     i1putch@c:	
  1216                           ; 0 bytes @ 0x6
  1217                           
  1218                           
  1219                           ; 1 bytes @ 0x6
  1220  0076                     	ds	1
  1221  0077                     ?i1_printf:	
  1222  0077                     i1printf@f:	
  1223                           ; 2 bytes @ 0x7
  1224                           
  1225                           
  1226                           ; 2 bytes @ 0x7
  1227  0077                     	ds	6
  1228  007D                     ??i1_menu:	
  1229                           
  1230                           ; 0 bytes @ 0xD
  1231  007D                     	ds	1
  1232                           
  1233                           	psect	cstackBANK0
  1234  0020                     __pcstackBANK0:	
  1235  0020                     ??i1_printf:	
  1236                           
  1237                           ; 0 bytes @ 0x0
  1238  0020                     	ds	3
  1239  0023                     i1printf@flag:	
  1240                           
  1241                           ; 1 bytes @ 0x3
  1242  0023                     	ds	1
  1243  0024                     i1printf@ap:	
  1244                           
  1245                           ; 1 bytes @ 0x4
  1246  0024                     	ds	1
  1247  0025                     i1printf@c:	
  1248                           
  1249                           ; 1 bytes @ 0x5
  1250  0025                     	ds	1
  1251  0026                     ??_acao:	
  1252  0026                     ??_inicializacao:	
  1253                           ; 0 bytes @ 0x6
  1254                           
  1255                           
  1256                           ; 0 bytes @ 0x6
  1257  0026                     	ds	3
  1258  0029                     ??_xandi:	
  1259                           
  1260                           ; 0 bytes @ 0x9
  1261  0029                     	ds	7
  1262  0030                     ??_spi_init:	
  1263  0030                     ??_spi_read:	
  1264                           ; 0 bytes @ 0x10
  1265                           
  1266  0030                     ??_bip:	
  1267                           ; 0 bytes @ 0x10
  1268                           
  1269  0030                     ??_lcd_write:	
  1270                           ; 0 bytes @ 0x10
  1271                           
  1272                           
  1273                           ; 0 bytes @ 0x10
  1274  0030                     	ds	1
  1275  0031                     spi_read@dado:	
  1276                           
  1277                           ; 1 bytes @ 0x11
  1278  0031                     	ds	1
  1279  0032                     spi_read@rec:	
  1280  0032                     lcd_write@c:	
  1281                           ; 1 bytes @ 0x12
  1282                           
  1283                           
  1284                           ; 1 bytes @ 0x12
  1285  0032                     	ds	1
  1286  0033                     ??_lcd_clear:	
  1287  0033                     ??_lcd_goto:	
  1288                           ; 0 bytes @ 0x13
  1289                           
  1290  0033                     lcd_goto@pos:	
  1291                           ; 0 bytes @ 0x13
  1292                           
  1293                           
  1294                           ; 1 bytes @ 0x13
  1295  0033                     	ds	2
  1296  0035                     ??_lcd_init:	
  1297  0035                     ??_lcd_putc:	
  1298                           ; 0 bytes @ 0x15
  1299                           
  1300  0035                     lcd_putc@c:	
  1301                           ; 0 bytes @ 0x15
  1302                           
  1303                           
  1304                           ; 1 bytes @ 0x15
  1305  0035                     	ds	1
  1306  0036                     ??_putch:	
  1307  0036                     putch@c:	
  1308                           ; 0 bytes @ 0x16
  1309                           
  1310                           
  1311                           ; 1 bytes @ 0x16
  1312  0036                     	ds	1
  1313  0037                     ?_printf:	
  1314  0037                     lcd_init@init_value:	
  1315                           ; 2 bytes @ 0x17
  1316                           
  1317  0037                     printf@f:	
  1318                           ; 1 bytes @ 0x17
  1319                           
  1320                           
  1321                           ; 2 bytes @ 0x17
  1322  0037                     	ds	6
  1323  003D                     ??_printf:	
  1324                           
  1325                           ; 0 bytes @ 0x1D
  1326  003D                     	ds	3
  1327  0040                     printf@flag:	
  1328                           
  1329                           ; 1 bytes @ 0x20
  1330  0040                     	ds	1
  1331  0041                     printf@ap:	
  1332                           
  1333                           ; 1 bytes @ 0x21
  1334  0041                     	ds	1
  1335  0042                     printf@c:	
  1336                           
  1337                           ; 1 bytes @ 0x22
  1338  0042                     	ds	1
  1339  0043                     ??_menu:	
  1340                           
  1341                           ; 0 bytes @ 0x23
  1342  0043                     	ds	1
  1343  0044                     ??_principal:	
  1344                           
  1345                           ; 0 bytes @ 0x24
  1346  0044                     	ds	3
  1347  0047                     ??_main:	
  1348                           
  1349                           	psect	maintext
  1350  0AA4                     __pmaintext:	
  1351                           ; 0 bytes @ 0x27
  1352 ;;
  1353 ;;Main: autosize = 0, tempsize = 0, incstack = 0, save=0
  1354 ;;
  1355 ;; *************** function _main *****************
  1356 ;; Defined at:
  1357 ;;		line 530 in file "TCC_1.c"
  1358 ;; Parameters:    Size  Location     Type
  1359 ;;		None
  1360 ;; Auto vars:     Size  Location     Type
  1361 ;;		None
  1362 ;; Return value:  Size  Location     Type
  1363 ;;		None               void
  1364 ;; Registers used:
  1365 ;;		wreg, fsr0l, fsr0h, fsr1l, fsr1h, fsr1l, fsr1h, status,2, status,0, btemp+1, pclath, cstack
  1366 ;; Tracked objects:
  1367 ;;		On entry : 17F/0
  1368 ;;		On exit  : 0/0
  1369 ;;		Unchanged: 0/0
  1370 ;; Data sizes:     COMMON   BANK0   BANK1   BANK3   BANK2
  1371 ;;      Params:         0       0       0       0       0
  1372 ;;      Locals:         0       0       0       0       0
  1373 ;;      Temps:          0       0       0       0       0
  1374 ;;      Totals:         0       0       0       0       0
  1375 ;;Total ram usage:        0 bytes
  1376 ;; Hardware stack levels required when called:   14
  1377 ;; This function calls:
  1378 ;;		_spi_init
  1379 ;;		_principal
  1380 ;;		_lcd_init
  1381 ;; This function is called by:
  1382 ;;		Startup code after reset
  1383 ;; This function uses a non-reentrant model
  1384 ;;
  1385                           
  1386                           
  1387                           ;psect for function _main
  1388  0AA4                     _main:	
  1389                           
  1390                           ;TCC_1.c: 531: OSCCON=0b01110000;
  1391                           
  1392                           ;incstack = 0
  1393 ;; hardware stack exceeded
  1394                           ; Regs used in _main: [allreg]
  1395  0AA4  3070               	movlw	112
  1396  0AA5  1683               	bsf	3,5	;RP0=1, select bank1
  1397  0AA6  1303               	bcf	3,6	;RP1=0, select bank1
  1398  0AA7  008F               	movwf	15	;volatile
  1399                           
  1400                           ;TCC_1.c: 532: ANSEL=0;
  1401  0AA8  1683               	bsf	3,5	;RP0=1, select bank3
  1402  0AA9  1703               	bsf	3,6	;RP1=1, select bank3
  1403  0AAA  0188               	clrf	8	;volatile
  1404                           
  1405                           ;TCC_1.c: 533: ANSELH=0;
  1406  0AAB  0189               	clrf	9	;volatile
  1407                           
  1408                           ;TCC_1.c: 534: TRISA=0;
  1409  0AAC  1683               	bsf	3,5	;RP0=1, select bank1
  1410  0AAD  1303               	bcf	3,6	;RP1=0, select bank1
  1411  0AAE  0185               	clrf	5	;volatile
  1412                           
  1413                           ;TCC_1.c: 535: TRISB=0b01111111;
  1414  0AAF  307F               	movlw	127
  1415  0AB0  0086               	movwf	6	;volatile
  1416                           
  1417                           ;TCC_1.c: 536: TRISC=0b10111100;
  1418  0AB1  30BC               	movlw	188
  1419  0AB2  0087               	movwf	7	;volatile
  1420                           
  1421                           ;TCC_1.c: 537: RC6=1;
  1422  0AB3  1283               	bcf	3,5	;RP0=0, select bank0
  1423  0AB4  1303               	bcf	3,6	;RP1=0, select bank0
  1424  0AB5  1707               	bsf	7,6	;volatile
  1425                           
  1426                           ;TCC_1.c: 538: RB7=0;
  1427  0AB6  1386               	bcf	6,7	;volatile
  1428                           
  1429                           ;TCC_1.c: 539: RC1=0;
  1430  0AB7  1087               	bcf	7,1	;volatile
  1431                           
  1432                           ;TCC_1.c: 540: RC0=0;
  1433  0AB8  1007               	bcf	7,0	;volatile
  1434                           
  1435                           ;TCC_1.c: 541: OPTION_REG=0;
  1436  0AB9  1683               	bsf	3,5	;RP0=1, select bank1
  1437  0ABA  1303               	bcf	3,6	;RP1=0, select bank1
  1438  0ABB  0181               	clrf	1	;volatile
  1439                           
  1440                           ;TCC_1.c: 542: lcd_init();
  1441  0ABC  120A  158A  23C3   	fcall	_lcd_init
      +       120A  158A         
  1442                           
  1443                           ;TCC_1.c: 543: spi_init();
  1444  0AC1  120A  118A  27F1   	fcall	_spi_init
      +       120A  158A         
  1445                           
  1446                           ;TCC_1.c: 544: INTCON=0;
  1447  0AC6  018B               	clrf	11	;volatile
  1448                           
  1449                           ;TCC_1.c: 545: IOCB=0b00000110;
  1450  0AC7  3006               	movlw	6
  1451  0AC8  1683               	bsf	3,5	;RP0=1, select bank1
  1452  0AC9  1303               	bcf	3,6	;RP1=0, select bank1
  1453  0ACA  0096               	movwf	22	;volatile
  1454                           
  1455                           ;TCC_1.c: 546: T2CON=0b01111010;
  1456  0ACB  307A               	movlw	122
  1457  0ACC  1283               	bcf	3,5	;RP0=0, select bank0
  1458  0ACD  1303               	bcf	3,6	;RP1=0, select bank0
  1459  0ACE  0092               	movwf	18	;volatile
  1460                           
  1461                           ;TCC_1.c: 547: PR2=0xFF;
  1462  0ACF  30FF               	movlw	255
  1463  0AD0  1683               	bsf	3,5	;RP0=1, select bank1
  1464  0AD1  1303               	bcf	3,6	;RP1=0, select bank1
  1465  0AD2  0092               	movwf	18	;volatile
  1466                           
  1467                           ;TCC_1.c: 548: TMR2IE=1;
  1468  0AD3  148C               	bsf	12,1	;volatile
  1469                           
  1470                           ;TCC_1.c: 549: T1CON=0b00110000;
  1471  0AD4  3030               	movlw	48
  1472  0AD5  1283               	bcf	3,5	;RP0=0, select bank0
  1473  0AD6  1303               	bcf	3,6	;RP1=0, select bank0
  1474  0AD7  0090               	movwf	16	;volatile
  1475                           
  1476                           ;TCC_1.c: 550: TMR1IE=1;
  1477  0AD8  1683               	bsf	3,5	;RP0=1, select bank1
  1478  0AD9  1303               	bcf	3,6	;RP1=0, select bank1
  1479  0ADA  140C               	bsf	12,0	;volatile
  1480                           
  1481                           ;TCC_1.c: 551: RB7=0;
  1482  0ADB  1283               	bcf	3,5	;RP0=0, select bank0
  1483  0ADC  1303               	bcf	3,6	;RP1=0, select bank0
  1484  0ADD  1386               	bcf	6,7	;volatile
  1485                           
  1486                           ;TCC_1.c: 552: ON=0;
  1487  0ADE  1047               	bcf	_ON/(0+8),_ON& (0+7)
  1488                           
  1489                           ;TCC_1.c: 553: INTCON=0b11011000;
  1490  0ADF  30D8               	movlw	216
  1491  0AE0  008B               	movwf	11	;volatile
  1492  0AE1                     l2058:	
  1493                           ;TCC_1.c: 554: while(1) principal();
  1494                           
  1495  0AE1  120A  118A  2015   	fcall	_principal
      +       120A  158A         
  1496  0AE6  2AE1               	goto	l2058
  1497  0AE7                     __end_of_main:	
  1498                           
  1499                           	psect	text1
  1500  0BC3                     __ptext1:	
  1501 ;; *************** function _lcd_init *****************
  1502 ;; Defined at:
  1503 ;;		line 111 in file "../LCD_ModSauer.c"
  1504 ;; Parameters:    Size  Location     Type
  1505 ;;		None
  1506 ;; Auto vars:     Size  Location     Type
  1507 ;;  init_value      1   23[BANK0 ] unsigned char 
  1508 ;; Return value:  Size  Location     Type
  1509 ;;		None               void
  1510 ;; Registers used:
  1511 ;;		wreg, status,2, status,0, pclath, cstack
  1512 ;; Tracked objects:
  1513 ;;		On entry : 0/0
  1514 ;;		On exit  : 0/0
  1515 ;;		Unchanged: 0/0
  1516 ;; Data sizes:     COMMON   BANK0   BANK1   BANK3   BANK2
  1517 ;;      Params:         0       0       0       0       0
  1518 ;;      Locals:         0       1       0       0       0
  1519 ;;      Temps:          0       2       0       0       0
  1520 ;;      Totals:         0       3       0       0       0
  1521 ;;Total ram usage:        3 bytes
  1522 ;; Hardware stack levels used:    1
  1523 ;; Hardware stack levels required when called:    9
  1524 ;; This function calls:
  1525 ;;		_lcd_clear
  1526 ;;		_lcd_write
  1527 ;; This function is called by:
  1528 ;;		_main
  1529 ;; This function uses a non-reentrant model
  1530 ;;
  1531                           
  1532                           
  1533                           ;psect for function _lcd_init
  1534  0BC3                     _lcd_init:	
  1535                           
  1536                           ;LCD_ModSauer.c: 112: char init_value;
  1537                           ;LCD_ModSauer.c: 115: init_value = 0x3;
  1538                           
  1539                           ;incstack = 0
  1540 ;; hardware stack exceeded
  1541                           ; Regs used in _lcd_init: [wreg+status,2+status,0+pclath+cstack]
  1542  0BC3  3003               	movlw	3
  1543  0BC4  1283               	bcf	3,5	;RP0=0, select bank0
  1544  0BC5  1303               	bcf	3,6	;RP1=0, select bank0
  1545  0BC6  00B5               	movwf	??_lcd_init
  1546  0BC7  0835               	movf	??_lcd_init,w
  1547  0BC8  00B7               	movwf	lcd_init@init_value
  1548                           
  1549                           ;LCD_ModSauer.c: 117: RA4 = 0;
  1550  0BC9  1205               	bcf	5,4	;volatile
  1551                           
  1552                           ;LCD_ModSauer.c: 118: RA5 = 0;
  1553  0BCA  1285               	bcf	5,5	;volatile
  1554                           
  1555                           ;LCD_ModSauer.c: 121: _delay((unsigned long)((15)*(8000000/4000.0)));
  1556  0BCB  3027               	movlw	39
  1557  0BCC  00B6               	movwf	??_lcd_init+1
  1558  0BCD  30F5               	movlw	245
  1559  0BCE  00B5               	movwf	??_lcd_init
  1560  0BCF                     u937:	
  1561  0BCF  0BB5               	decfsz	??_lcd_init,f
  1562  0BD0  2BCF               	goto	u937
  1563  0BD1  0BB6               	decfsz	??_lcd_init+1,f
  1564  0BD2  2BCF               	goto	u937
  1565                           
  1566                           ;LCD_ModSauer.c: 122: PORTA = init_value;
  1567  0BD3  1283               	bcf	3,5	;RP0=0, select bank0
  1568  0BD4  1303               	bcf	3,6	;RP1=0, select bank0
  1569  0BD5  0837               	movf	lcd_init@init_value,w
  1570  0BD6  0085               	movwf	5	;volatile
  1571                           
  1572                           ;LCD_ModSauer.c: 123: ((RA5 = 1),(RA5=0));
  1573  0BD7  1685               	bsf	5,5	;volatile
  1574  0BD8  1285               	bcf	5,5	;volatile
  1575                           
  1576                           ;LCD_ModSauer.c: 124: _delay((unsigned long)((5)*(8000000/4000.0)));
  1577  0BD9  300D               	movlw	13
  1578  0BDA  00B6               	movwf	??_lcd_init+1
  1579  0BDB  30FB               	movlw	251
  1580  0BDC  00B5               	movwf	??_lcd_init
  1581  0BDD                     u947:	
  1582  0BDD  0BB5               	decfsz	??_lcd_init,f
  1583  0BDE  2BDD               	goto	u947
  1584  0BDF  0BB6               	decfsz	??_lcd_init+1,f
  1585  0BE0  2BDD               	goto	u947
  1586  0BE1  2BE2               	nop2
  1587                           
  1588                           ;LCD_ModSauer.c: 125: ((RA5 = 1),(RA5=0));
  1589  0BE2  1283               	bcf	3,5	;RP0=0, select bank0
  1590  0BE3  1303               	bcf	3,6	;RP1=0, select bank0
  1591  0BE4  1685               	bsf	5,5	;volatile
  1592  0BE5  1285               	bcf	5,5	;volatile
  1593                           
  1594                           ;LCD_ModSauer.c: 126: _delay((unsigned long)((200)*(8000000/4000000.0)));
  1595  0BE6  3085               	movlw	133
  1596  0BE7  00B5               	movwf	??_lcd_init
  1597  0BE8                     u957:	
  1598  0BE8  0BB5               	decfsz	??_lcd_init,f
  1599  0BE9  2BE8               	goto	u957
  1600                           
  1601                           ;LCD_ModSauer.c: 127: ((RA5 = 1),(RA5=0));
  1602  0BEA  1283               	bcf	3,5	;RP0=0, select bank0
  1603  0BEB  1303               	bcf	3,6	;RP1=0, select bank0
  1604  0BEC  1685               	bsf	5,5	;volatile
  1605  0BED  1285               	bcf	5,5	;volatile
  1606                           
  1607                           ;LCD_ModSauer.c: 128: _delay((unsigned long)((200)*(8000000/4000000.0)));
  1608  0BEE  3085               	movlw	133
  1609  0BEF  00B5               	movwf	??_lcd_init
  1610  0BF0                     u967:	
  1611  0BF0  0BB5               	decfsz	??_lcd_init,f
  1612  0BF1  2BF0               	goto	u967
  1613                           
  1614                           ;LCD_ModSauer.c: 129: PORTA = 2;
  1615  0BF2  3002               	movlw	2
  1616  0BF3  1283               	bcf	3,5	;RP0=0, select bank0
  1617  0BF4  1303               	bcf	3,6	;RP1=0, select bank0
  1618  0BF5  0085               	movwf	5	;volatile
  1619                           
  1620                           ;LCD_ModSauer.c: 130: ((RA5 = 1),(RA5=0));
  1621  0BF6  1685               	bsf	5,5	;volatile
  1622  0BF7  1285               	bcf	5,5	;volatile
  1623                           
  1624                           ;LCD_ModSauer.c: 132: lcd_write(0x28);
  1625  0BF8  3028               	movlw	40
  1626  0BF9  120A  158A  2216   	fcall	_lcd_write
      +       120A  158A         
  1627                           
  1628                           ;LCD_ModSauer.c: 133: _delay((unsigned long)((50)*(8000000/4000000.0)));
  1629  0BFE  3021               	movlw	33
  1630  0BFF  1283               	bcf	3,5	;RP0=0, select bank0
  1631  0C00  1303               	bcf	3,6	;RP1=0, select bank0
  1632  0C01  00B5               	movwf	??_lcd_init
  1633  0C02                     u977:	
  1634  0C02  0BB5               	decfsz	??_lcd_init,f
  1635  0C03  2C02               	goto	u977
  1636                           
  1637                           ;LCD_ModSauer.c: 134: lcd_write(0x0C);
  1638  0C04  300C               	movlw	12
  1639  0C05  120A  158A  2216   	fcall	_lcd_write
      +       120A  158A         
  1640                           
  1641                           ;LCD_ModSauer.c: 135: _delay((unsigned long)((50)*(8000000/4000000.0)));
  1642  0C0A  3021               	movlw	33
  1643  0C0B  1283               	bcf	3,5	;RP0=0, select bank0
  1644  0C0C  1303               	bcf	3,6	;RP1=0, select bank0
  1645  0C0D  00B5               	movwf	??_lcd_init
  1646  0C0E                     u987:	
  1647  0C0E  0BB5               	decfsz	??_lcd_init,f
  1648  0C0F  2C0E               	goto	u987
  1649                           
  1650                           ;LCD_ModSauer.c: 136: lcd_clear();
  1651  0C10  120A  158A  2168   	fcall	_lcd_clear
      +       120A  158A         
  1652                           
  1653                           ;LCD_ModSauer.c: 137: _delay((unsigned long)((50)*(8000000/4000000.0)));
  1654  0C15  3021               	movlw	33
  1655  0C16  1283               	bcf	3,5	;RP0=0, select bank0
  1656  0C17  1303               	bcf	3,6	;RP1=0, select bank0
  1657  0C18  00B5               	movwf	??_lcd_init
  1658  0C19                     u997:	
  1659  0C19  0BB5               	decfsz	??_lcd_init,f
  1660  0C1A  2C19               	goto	u997
  1661                           
  1662                           ;LCD_ModSauer.c: 138: lcd_write(0x6);
  1663  0C1B  3006               	movlw	6
  1664  0C1C  120A  158A  2216   	fcall	_lcd_write
      +       120A  158A         
  1665                           
  1666                           ;LCD_ModSauer.c: 139: _delay((unsigned long)((50)*(8000000/4000000.0)));
  1667  0C21  3021               	movlw	33
  1668  0C22  1283               	bcf	3,5	;RP0=0, select bank0
  1669  0C23  1303               	bcf	3,6	;RP1=0, select bank0
  1670  0C24  00B5               	movwf	??_lcd_init
  1671  0C25                     u1007:	
  1672  0C25  0BB5               	decfsz	??_lcd_init,f
  1673  0C26  2C25               	goto	u1007
  1674                           
  1675                           ;LCD_ModSauer.c: 142: RA4=0;
  1676  0C27  1283               	bcf	3,5	;RP0=0, select bank0
  1677  0C28  1303               	bcf	3,6	;RP1=0, select bank0
  1678  0C29  1205               	bcf	5,4	;volatile
  1679                           
  1680                           ;LCD_ModSauer.c: 143: lcd_write(0b01000000);
  1681  0C2A  3040               	movlw	64
  1682  0C2B  120A  158A  2216   	fcall	_lcd_write
      +       120A  158A         
  1683                           
  1684                           ;LCD_ModSauer.c: 144: RA4=1;
  1685  0C30  1283               	bcf	3,5	;RP0=0, select bank0
  1686  0C31  1303               	bcf	3,6	;RP1=0, select bank0
  1687  0C32  1605               	bsf	5,4	;volatile
  1688                           
  1689                           ;LCD_ModSauer.c: 145: lcd_write(0b00001010);
  1690  0C33  300A               	movlw	10
  1691  0C34  120A  158A  2216   	fcall	_lcd_write
      +       120A  158A         
  1692                           
  1693                           ;LCD_ModSauer.c: 146: lcd_write(0b00011111);
  1694  0C39  301F               	movlw	31
  1695  0C3A  120A  158A  2216   	fcall	_lcd_write
      +       120A  158A         
  1696                           
  1697                           ;LCD_ModSauer.c: 147: lcd_write(0b00001110);
  1698  0C3F  300E               	movlw	14
  1699  0C40  120A  158A  2216   	fcall	_lcd_write
      +       120A  158A         
  1700                           
  1701                           ;LCD_ModSauer.c: 148: lcd_write(0b00011111);
  1702  0C45  301F               	movlw	31
  1703  0C46  120A  158A  2216   	fcall	_lcd_write
      +       120A  158A         
  1704                           
  1705                           ;LCD_ModSauer.c: 149: lcd_write(0b00001110);
  1706  0C4B  300E               	movlw	14
  1707  0C4C  120A  158A  2216   	fcall	_lcd_write
      +       120A  158A         
  1708                           
  1709                           ;LCD_ModSauer.c: 150: lcd_write(0b00011111);
  1710  0C51  301F               	movlw	31
  1711  0C52  120A  158A  2216   	fcall	_lcd_write
      +       120A  158A         
  1712                           
  1713                           ;LCD_ModSauer.c: 151: lcd_write(0b00001110);
  1714  0C57  300E               	movlw	14
  1715  0C58  120A  158A  2216   	fcall	_lcd_write
      +       120A  158A         
  1716                           
  1717                           ;LCD_ModSauer.c: 152: lcd_write(0b00000000);
  1718  0C5D  3000               	movlw	0
  1719  0C5E  120A  158A  2216   	fcall	_lcd_write
      +       120A  158A         
  1720                           
  1721                           ;LCD_ModSauer.c: 154: lcd_write(0b00000010);
  1722  0C63  3002               	movlw	2
  1723  0C64  120A  158A  2216   	fcall	_lcd_write
      +       120A  158A         
  1724                           
  1725                           ;LCD_ModSauer.c: 155: lcd_write(0b00000100);
  1726  0C69  3004               	movlw	4
  1727  0C6A  120A  158A  2216   	fcall	_lcd_write
      +       120A  158A         
  1728                           
  1729                           ;LCD_ModSauer.c: 156: lcd_write(0b00001110);
  1730  0C6F  300E               	movlw	14
  1731  0C70  120A  158A  2216   	fcall	_lcd_write
      +       120A  158A         
  1732                           
  1733                           ;LCD_ModSauer.c: 157: lcd_write(0b00010001);
  1734  0C75  3011               	movlw	17
  1735  0C76  120A  158A  2216   	fcall	_lcd_write
      +       120A  158A         
  1736                           
  1737                           ;LCD_ModSauer.c: 158: lcd_write(0b00011111);
  1738  0C7B  301F               	movlw	31
  1739  0C7C  120A  158A  2216   	fcall	_lcd_write
      +       120A  158A         
  1740                           
  1741                           ;LCD_ModSauer.c: 159: lcd_write(0b00010000);
  1742  0C81  3010               	movlw	16
  1743  0C82  120A  158A  2216   	fcall	_lcd_write
      +       120A  158A         
  1744                           
  1745                           ;LCD_ModSauer.c: 160: lcd_write(0b00001110);
  1746  0C87  300E               	movlw	14
  1747  0C88  120A  158A  2216   	fcall	_lcd_write
      +       120A  158A         
  1748                           
  1749                           ;LCD_ModSauer.c: 162: RA4=0;
  1750  0C8D  1283               	bcf	3,5	;RP0=0, select bank0
  1751  0C8E  1303               	bcf	3,6	;RP1=0, select bank0
  1752  0C8F  1205               	bcf	5,4	;volatile
  1753                           
  1754                           ;LCD_ModSauer.c: 163: lcd_clear();
  1755  0C90  120A  158A  2168   	fcall	_lcd_clear
  1756  0C93  0008               	return
  1757  0C94                     __end_of_lcd_init:	
  1758                           
  1759                           	psect	text2
  1760  0015                     __ptext2:	
  1761 ;; *************** function _principal *****************
  1762 ;; Defined at:
  1763 ;;		line 260 in file "TCC_1.c"
  1764 ;; Parameters:    Size  Location     Type
  1765 ;;		None
  1766 ;; Auto vars:     Size  Location     Type
  1767 ;;		None
  1768 ;; Return value:  Size  Location     Type
  1769 ;;		None               void
  1770 ;; Registers used:
  1771 ;;		wreg, fsr0l, fsr0h, fsr1l, fsr1h, fsr1l, fsr1h, status,2, status,0, btemp+1, pclath, cstack
  1772 ;; Tracked objects:
  1773 ;;		On entry : 0/0
  1774 ;;		On exit  : 0/0
  1775 ;;		Unchanged: 0/0
  1776 ;; Data sizes:     COMMON   BANK0   BANK1   BANK3   BANK2
  1777 ;;      Params:         0       0       0       0       0
  1778 ;;      Locals:         0       0       0       0       0
  1779 ;;      Temps:          0       3       0       0       0
  1780 ;;      Totals:         0       3       0       0       0
  1781 ;;Total ram usage:        3 bytes
  1782 ;; Hardware stack levels used:    1
  1783 ;; Hardware stack levels required when called:   13
  1784 ;; This function calls:
  1785 ;;		_spi_read
  1786 ;;		_lcd_clear
  1787 ;;		_printf
  1788 ;;		_menu
  1789 ;;		_bip
  1790 ;; This function is called by:
  1791 ;;		_main
  1792 ;; This function uses a non-reentrant model
  1793 ;;
  1794                           
  1795                           
  1796                           ;psect for function _principal
  1797  0015                     _principal:	
  1798  0015                     l170:	
  1799                           ;incstack = 0
  1800 ;; hardware stack exceeded
  1801                           ; Regs used in _principal: [allreg]
  1802                           ;TCC_1.c: 261: while(1){
  1803                           
  1804                           
  1805                           ;TCC_1.c: 263: if (!ON) asm("sleep");
  1806  0015  1283               	bcf	3,5	;RP0=0, select bank0
  1807  0016  1303               	bcf	3,6	;RP1=0, select bank0
  1808  0017  1C47               	btfss	_ON/(0+8),_ON& (0+7)
  1809  0018  0063               	sleep	;# 
  1810                           
  1811                           ;TCC_1.c: 264: if(selec_portas){
  1812  0019  1283               	bcf	3,5	;RP0=0, select bank0
  1813  001A  1303               	bcf	3,6	;RP1=0, select bank0
  1814  001B  1E47               	btfss	_selec_portas/(0+8),_selec_portas& (0+7)
  1815  001C  2815               	goto	l170
  1816                           
  1817                           ;TCC_1.c: 265: posicao=0;
  1818  001D  01CC               	clrf	_posicao
  1819                           
  1820                           ;TCC_1.c: 266: portas_1=0;
  1821  001E  01CA               	clrf	_portas_1
  1822                           
  1823                           ;TCC_1.c: 267: portas_2=0;
  1824  001F  01CB               	clrf	_portas_2
  1825                           
  1826                           ;TCC_1.c: 268: while(!oi){
  1827  0020  287D               	goto	l173
  1828  0021                     l1846:	
  1829                           ;TCC_1.c: 274: case 0: printf("\nPorta 1: AND");
  1830                           
  1831                           ;TCC_1.c: 273: switch(posicao){
  1832                           
  1833  0021  3022               	movlw	low (STR_23| (0+32768))
  1834  0022  1283               	bcf	3,5	;RP0=0, select bank0
  1835  0023  1303               	bcf	3,6	;RP1=0, select bank0
  1836  0024  00B7               	movwf	?_printf
  1837  0025  3085               	movlw	high (STR_23| (0+32768))
  1838  0026  00B8               	movwf	?_printf+1
  1839  0027  120A  118A  2395   	fcall	_printf
      +       120A  118A         
  1840                           
  1841                           ;TCC_1.c: 275: break;
  1842  002C  287D               	goto	l173
  1843  002D                     l1848:	
  1844                           ;TCC_1.c: 276: case 1: printf("\nPorta 1: NAND");
  1845                           
  1846  002D  308D               	movlw	low (STR_24| (0+32768))
  1847  002E  1283               	bcf	3,5	;RP0=0, select bank0
  1848  002F  1303               	bcf	3,6	;RP1=0, select bank0
  1849  0030  00B7               	movwf	?_printf
  1850  0031  3084               	movlw	high (STR_24| (0+32768))
  1851  0032  00B8               	movwf	?_printf+1
  1852  0033  120A  118A  2395   	fcall	_printf
      +       120A  118A         
  1853                           
  1854                           ;TCC_1.c: 277: break;
  1855  0038  287D               	goto	l173
  1856  0039                     l1850:	
  1857                           ;TCC_1.c: 278: case 2: printf("\nPorta 1: OR");
  1858                           
  1859  0039  3002               	movlw	low (STR_25| (0+32768))
  1860  003A  1283               	bcf	3,5	;RP0=0, select bank0
  1861  003B  1303               	bcf	3,6	;RP1=0, select bank0
  1862  003C  00B7               	movwf	?_printf
  1863  003D  3086               	movlw	high (STR_25| (0+32768))
  1864  003E  00B8               	movwf	?_printf+1
  1865  003F  120A  118A  2395   	fcall	_printf
      +       120A  118A         
  1866                           
  1867                           ;TCC_1.c: 279: break;
  1868  0044  287D               	goto	l173
  1869  0045                     l1852:	
  1870                           ;TCC_1.c: 280: case 3: printf("\nPorta 1: NOR");
  1871                           
  1872  0045  305A               	movlw	low (STR_26| (0+32768))
  1873  0046  1283               	bcf	3,5	;RP0=0, select bank0
  1874  0047  1303               	bcf	3,6	;RP1=0, select bank0
  1875  0048  00B7               	movwf	?_printf
  1876  0049  3085               	movlw	high (STR_26| (0+32768))
  1877  004A  00B8               	movwf	?_printf+1
  1878  004B  120A  118A  2395   	fcall	_printf
      +       120A  118A         
  1879                           
  1880                           ;TCC_1.c: 281: break;
  1881  0050  287D               	goto	l173
  1882  0051                     l1854:	
  1883                           ;TCC_1.c: 282: case 4: printf("\nPorta 1: XOR");
  1884                           
  1885  0051  3092               	movlw	low (STR_27| (0+32768))
  1886  0052  1283               	bcf	3,5	;RP0=0, select bank0
  1887  0053  1303               	bcf	3,6	;RP1=0, select bank0
  1888  0054  00B7               	movwf	?_printf
  1889  0055  3085               	movlw	high (STR_27| (0+32768))
  1890  0056  00B8               	movwf	?_printf+1
  1891  0057  120A  118A  2395   	fcall	_printf
      +       120A  118A         
  1892                           
  1893                           ;TCC_1.c: 283: break;
  1894  005C  287D               	goto	l173
  1895  005D                     l1856:	
  1896                           ;TCC_1.c: 284: case 5: printf("\nPorta 1: XNOR");
  1897                           
  1898  005D  30C9               	movlw	low (STR_28| (0+32768))
  1899  005E  1283               	bcf	3,5	;RP0=0, select bank0
  1900  005F  1303               	bcf	3,6	;RP1=0, select bank0
  1901  0060  00B7               	movwf	?_printf
  1902  0061  3084               	movlw	high (STR_28| (0+32768))
  1903  0062  00B8               	movwf	?_printf+1
  1904  0063  120A  118A  2395   	fcall	_printf
      +       120A  118A         
  1905                           
  1906                           ;TCC_1.c: 285: break;
  1907  0068  287D               	goto	l173
  1908  0069                     l1858:	
  1909                           ;TCC_1.c: 286: case 6: printf("\nPorta 1: NOT");
  1910                           
  1911  0069  30CA               	movlw	low (STR_29| (0+32768))
  1912  006A  1283               	bcf	3,5	;RP0=0, select bank0
  1913  006B  1303               	bcf	3,6	;RP1=0, select bank0
  1914  006C  00B7               	movwf	?_printf
  1915  006D  3085               	movlw	high (STR_29| (0+32768))
  1916  006E  00B8               	movwf	?_printf+1
  1917  006F  120A  118A  2395   	fcall	_printf
      +       120A  118A         
  1918                           
  1919                           ;TCC_1.c: 287: break;
  1920  0074  287D               	goto	l173
  1921  0075                     l1860:	
  1922                           ;TCC_1.c: 288: case 14:posicao=6;
  1923                           
  1924  0075  3006               	movlw	6
  1925  0076  1283               	bcf	3,5	;RP0=0, select bank0
  1926  0077  1303               	bcf	3,6	;RP1=0, select bank0
  1927  0078  00C4               	movwf	??_principal
  1928  0079  0844               	movf	??_principal,w
  1929  007A  00CC               	movwf	_posicao
  1930                           
  1931                           ;TCC_1.c: 289: break;
  1932  007B  287D               	goto	l173
  1933  007C                     l1862:	
  1934                           ;TCC_1.c: 290: default:posicao=0;
  1935                           
  1936  007C  01CC               	clrf	_posicao
  1937  007D                     l173:	
  1938                           ;TCC_1.c: 292: }
  1939                           
  1940                           ;TCC_1.c: 291: break;
  1941                           
  1942  007D  1283               	bcf	3,5	;RP0=0, select bank0
  1943  007E  1303               	bcf	3,6	;RP1=0, select bank0
  1944  007F  1947               	btfsc	_oi/(0+8),_oi& (0+7)
  1945  0080  28C9               	goto	l186
  1946                           
  1947                           ;TCC_1.c: 269: _delay((unsigned long)((200)*(8000000/4000.0)));
  1948  0081  3003               	movlw	3
  1949  0082  00C6               	movwf	??_principal+2
  1950  0083  3008               	movlw	8
  1951  0084  00C5               	movwf	??_principal+1
  1952  0085  3078               	movlw	120
  1953  0086  00C4               	movwf	??_principal
  1954  0087                     u1017:	
  1955  0087  0BC4               	decfsz	??_principal,f
  1956  0088  2887               	goto	u1017
  1957  0089  0BC5               	decfsz	??_principal+1,f
  1958  008A  2887               	goto	u1017
  1959  008B  0BC6               	decfsz	??_principal+2,f
  1960  008C  2887               	goto	u1017
  1961                           
  1962                           ;TCC_1.c: 270: lcd_clear();
  1963  008D  120A  158A  2168   	fcall	_lcd_clear
      +       120A  118A         
  1964                           
  1965                           ;TCC_1.c: 271: printf("%c  SCID-2013   %c",0,0);
  1966  0092  3057               	movlw	low (STR_2| (0+32768))
  1967  0093  1283               	bcf	3,5	;RP0=0, select bank0
  1968  0094  1303               	bcf	3,6	;RP1=0, select bank0
  1969  0095  00B7               	movwf	?_printf
  1970  0096  3084               	movlw	high (STR_2| (0+32768))
  1971  0097  00B8               	movwf	?_printf+1
  1972  0098  3000               	movlw	0
  1973  0099  00B9               	movwf	?_printf+2
  1974  009A  3000               	movlw	0
  1975  009B  00BA               	movwf	?_printf+3
  1976  009C  3000               	movlw	0
  1977  009D  00BB               	movwf	?_printf+4
  1978  009E  3000               	movlw	0
  1979  009F  00BC               	movwf	?_printf+5
  1980  00A0  120A  118A  2395   	fcall	_printf
      +       120A  118A         
  1981                           
  1982                           ;TCC_1.c: 272: _delay((unsigned long)((100)*(8000000/4000000.0)));
  1983  00A5  3042               	movlw	66
  1984  00A6  1283               	bcf	3,5	;RP0=0, select bank0
  1985  00A7  1303               	bcf	3,6	;RP1=0, select bank0
  1986  00A8  00C4               	movwf	??_principal
  1987  00A9                     u1027:	
  1988  00A9  0BC4               	decfsz	??_principal,f
  1989  00AA  28A9               	goto	u1027
  1990  00AB  0000               	nop
  1991  00AC  1283               	bcf	3,5	;RP0=0, select bank0
  1992  00AD  1303               	bcf	3,6	;RP1=0, select bank0
  1993  00AE  084C               	movf	_posicao,w
  1994                           
  1995                           ; Switch size 1, requested type "space"
  1996                           ; Number of cases is 8, Range of values is 0 to 14
  1997                           ; switch strategies available:
  1998                           ; Name         Instructions Cycles
  1999                           ; simple_byte           25    13 (average)
  2000                           ; direct_byte           53     8 (fixed)
  2001                           ; jumptable            260     6 (fixed)
  2002                           ; rangetable            19     6 (fixed)
  2003                           ; spacedrange           36     9 (fixed)
  2004                           ; locatedrange          15     3 (fixed)
  2005                           ;	Chosen strategy is simple_byte
  2006  00AF  3A00               	xorlw	0	; case 0
  2007  00B0  1903               	skipnz
  2008  00B1  2821               	goto	l1846
  2009  00B2  3A01               	xorlw	1	; case 1
  2010  00B3  1903               	skipnz
  2011  00B4  282D               	goto	l1848
  2012  00B5  3A03               	xorlw	3	; case 2
  2013  00B6  1903               	skipnz
  2014  00B7  2839               	goto	l1850
  2015  00B8  3A01               	xorlw	1	; case 3
  2016  00B9  1903               	skipnz
  2017  00BA  2845               	goto	l1852
  2018  00BB  3A07               	xorlw	7	; case 4
  2019  00BC  1903               	skipnz
  2020  00BD  2851               	goto	l1854
  2021  00BE  3A01               	xorlw	1	; case 5
  2022  00BF  1903               	skipnz
  2023  00C0  285D               	goto	l1856
  2024  00C1  3A03               	xorlw	3	; case 6
  2025  00C2  1903               	skipnz
  2026  00C3  2869               	goto	l1858
  2027  00C4  3A08               	xorlw	8	; case 14
  2028  00C5  1903               	skipnz
  2029  00C6  2875               	goto	l1860
  2030  00C7  287C               	goto	l1862
  2031  00C8  287D               	goto	l173
  2032  00C9                     l186:	
  2033                           
  2034                           ;TCC_1.c: 293: }
  2035                           ;TCC_1.c: 294: oi=0;
  2036  00C9  1147               	bcf	_oi/(0+8),_oi& (0+7)
  2037                           
  2038                           ;TCC_1.c: 295: _delay((unsigned long)((100)*(8000000/4000.0)));
  2039  00CA  3002               	movlw	2
  2040  00CB  00C6               	movwf	??_principal+2
  2041  00CC  3004               	movlw	4
  2042  00CD  00C5               	movwf	??_principal+1
  2043  00CE  30BA               	movlw	186
  2044  00CF  00C4               	movwf	??_principal
  2045  00D0                     u1037:	
  2046  00D0  0BC4               	decfsz	??_principal,f
  2047  00D1  28D0               	goto	u1037
  2048  00D2  0BC5               	decfsz	??_principal+1,f
  2049  00D3  28D0               	goto	u1037
  2050  00D4  0BC6               	decfsz	??_principal+2,f
  2051  00D5  28D0               	goto	u1037
  2052  00D6  0000               	nop
  2053                           
  2054                           ;TCC_1.c: 296: portas_1|=posicao;
  2055  00D7  1283               	bcf	3,5	;RP0=0, select bank0
  2056  00D8  1303               	bcf	3,6	;RP1=0, select bank0
  2057  00D9  084C               	movf	_posicao,w
  2058  00DA  00C4               	movwf	??_principal
  2059  00DB  0844               	movf	??_principal,w
  2060  00DC  04CA               	iorwf	_portas_1,f
  2061                           
  2062                           ;TCC_1.c: 297: INTCON=0b11011000;
  2063  00DD  30D8               	movlw	216
  2064  00DE  008B               	movwf	11	;volatile
  2065                           
  2066                           ;TCC_1.c: 298: while(!oi){
  2067  00DF  293C               	goto	l187
  2068  00E0                     l1882:	
  2069                           ;TCC_1.c: 304: case 0: printf("\nPorta 2: AND");
  2070                           
  2071                           ;TCC_1.c: 303: switch(posicao){
  2072                           
  2073  00E0  3030               	movlw	low (STR_31| (0+32768))
  2074  00E1  1283               	bcf	3,5	;RP0=0, select bank0
  2075  00E2  1303               	bcf	3,6	;RP1=0, select bank0
  2076  00E3  00B7               	movwf	?_printf
  2077  00E4  3085               	movlw	high (STR_31| (0+32768))
  2078  00E5  00B8               	movwf	?_printf+1
  2079  00E6  120A  118A  2395   	fcall	_printf
      +       120A  118A         
  2080                           
  2081                           ;TCC_1.c: 305: break;
  2082  00EB  293C               	goto	l187
  2083  00EC                     l1884:	
  2084                           ;TCC_1.c: 306: case 1: printf("\nPorta 2: NAND");
  2085                           
  2086  00EC  309C               	movlw	low (STR_32| (0+32768))
  2087  00ED  1283               	bcf	3,5	;RP0=0, select bank0
  2088  00EE  1303               	bcf	3,6	;RP1=0, select bank0
  2089  00EF  00B7               	movwf	?_printf
  2090  00F0  3084               	movlw	high (STR_32| (0+32768))
  2091  00F1  00B8               	movwf	?_printf+1
  2092  00F2  120A  118A  2395   	fcall	_printf
      +       120A  118A         
  2093                           
  2094                           ;TCC_1.c: 307: break;
  2095  00F7  293C               	goto	l187
  2096  00F8                     l1886:	
  2097                           ;TCC_1.c: 308: case 2: printf("\nPorta 2: OR");
  2098                           
  2099  00F8  300F               	movlw	low (STR_33| (0+32768))
  2100  00F9  1283               	bcf	3,5	;RP0=0, select bank0
  2101  00FA  1303               	bcf	3,6	;RP1=0, select bank0
  2102  00FB  00B7               	movwf	?_printf
  2103  00FC  3086               	movlw	high (STR_33| (0+32768))
  2104  00FD  00B8               	movwf	?_printf+1
  2105  00FE  120A  118A  2395   	fcall	_printf
      +       120A  118A         
  2106                           
  2107                           ;TCC_1.c: 309: break;
  2108  0103  293C               	goto	l187
  2109  0104                     l1888:	
  2110                           ;TCC_1.c: 310: case 3: printf("\nPorta 2: NOR");
  2111                           
  2112  0104  3068               	movlw	low (STR_34| (0+32768))
  2113  0105  1283               	bcf	3,5	;RP0=0, select bank0
  2114  0106  1303               	bcf	3,6	;RP1=0, select bank0
  2115  0107  00B7               	movwf	?_printf
  2116  0108  3085               	movlw	high (STR_34| (0+32768))
  2117  0109  00B8               	movwf	?_printf+1
  2118  010A  120A  118A  2395   	fcall	_printf
      +       120A  118A         
  2119                           
  2120                           ;TCC_1.c: 311: break;
  2121  010F  293C               	goto	l187
  2122  0110                     l1890:	
  2123                           ;TCC_1.c: 312: case 4: printf("\nPorta 2: XOR");
  2124                           
  2125  0110  30A0               	movlw	low (STR_35| (0+32768))
  2126  0111  1283               	bcf	3,5	;RP0=0, select bank0
  2127  0112  1303               	bcf	3,6	;RP1=0, select bank0
  2128  0113  00B7               	movwf	?_printf
  2129  0114  3085               	movlw	high (STR_35| (0+32768))
  2130  0115  00B8               	movwf	?_printf+1
  2131  0116  120A  118A  2395   	fcall	_printf
      +       120A  118A         
  2132                           
  2133                           ;TCC_1.c: 313: break;
  2134  011B  293C               	goto	l187
  2135  011C                     l1892:	
  2136                           ;TCC_1.c: 314: case 5: printf("\nPorta 2: XNOR");
  2137                           
  2138  011C  30D8               	movlw	low (STR_36| (0+32768))
  2139  011D  1283               	bcf	3,5	;RP0=0, select bank0
  2140  011E  1303               	bcf	3,6	;RP1=0, select bank0
  2141  011F  00B7               	movwf	?_printf
  2142  0120  3084               	movlw	high (STR_36| (0+32768))
  2143  0121  00B8               	movwf	?_printf+1
  2144  0122  120A  118A  2395   	fcall	_printf
      +       120A  118A         
  2145                           
  2146                           ;TCC_1.c: 315: break;
  2147  0127  293C               	goto	l187
  2148  0128                     l1894:	
  2149                           ;TCC_1.c: 316: case 6: printf("\nPorta 2: NOT");
  2150                           
  2151  0128  30D8               	movlw	low (STR_37| (0+32768))
  2152  0129  1283               	bcf	3,5	;RP0=0, select bank0
  2153  012A  1303               	bcf	3,6	;RP1=0, select bank0
  2154  012B  00B7               	movwf	?_printf
  2155  012C  3085               	movlw	high (STR_37| (0+32768))
  2156  012D  00B8               	movwf	?_printf+1
  2157  012E  120A  118A  2395   	fcall	_printf
      +       120A  118A         
  2158                           
  2159                           ;TCC_1.c: 317: break;
  2160  0133  293C               	goto	l187
  2161  0134                     l1896:	
  2162                           ;TCC_1.c: 318: case 14:posicao=6;
  2163                           
  2164  0134  3006               	movlw	6
  2165  0135  1283               	bcf	3,5	;RP0=0, select bank0
  2166  0136  1303               	bcf	3,6	;RP1=0, select bank0
  2167  0137  00C4               	movwf	??_principal
  2168  0138  0844               	movf	??_principal,w
  2169  0139  00CC               	movwf	_posicao
  2170                           
  2171                           ;TCC_1.c: 319: break;
  2172  013A  293C               	goto	l187
  2173  013B                     l1898:	
  2174                           ;TCC_1.c: 320: default:posicao=0;
  2175                           
  2176  013B  01CC               	clrf	_posicao
  2177  013C                     l187:	
  2178                           ;TCC_1.c: 322: }
  2179                           
  2180                           ;TCC_1.c: 321: break;
  2181                           
  2182  013C  1283               	bcf	3,5	;RP0=0, select bank0
  2183  013D  1303               	bcf	3,6	;RP1=0, select bank0
  2184  013E  1947               	btfsc	_oi/(0+8),_oi& (0+7)
  2185  013F  2988               	goto	l200
  2186                           
  2187                           ;TCC_1.c: 299: _delay((unsigned long)((200)*(8000000/4000.0)));
  2188  0140  3003               	movlw	3
  2189  0141  00C6               	movwf	??_principal+2
  2190  0142  3008               	movlw	8
  2191  0143  00C5               	movwf	??_principal+1
  2192  0144  3078               	movlw	120
  2193  0145  00C4               	movwf	??_principal
  2194  0146                     u1047:	
  2195  0146  0BC4               	decfsz	??_principal,f
  2196  0147  2946               	goto	u1047
  2197  0148  0BC5               	decfsz	??_principal+1,f
  2198  0149  2946               	goto	u1047
  2199  014A  0BC6               	decfsz	??_principal+2,f
  2200  014B  2946               	goto	u1047
  2201                           
  2202                           ;TCC_1.c: 300: lcd_clear();
  2203  014C  120A  158A  2168   	fcall	_lcd_clear
      +       120A  118A         
  2204                           
  2205                           ;TCC_1.c: 301: printf("%c  SCID-2013   %c",0,0);
  2206  0151  3057               	movlw	low (STR_2| (0+32768))
  2207  0152  1283               	bcf	3,5	;RP0=0, select bank0
  2208  0153  1303               	bcf	3,6	;RP1=0, select bank0
  2209  0154  00B7               	movwf	?_printf
  2210  0155  3084               	movlw	high (STR_2| (0+32768))
  2211  0156  00B8               	movwf	?_printf+1
  2212  0157  3000               	movlw	0
  2213  0158  00B9               	movwf	?_printf+2
  2214  0159  3000               	movlw	0
  2215  015A  00BA               	movwf	?_printf+3
  2216  015B  3000               	movlw	0
  2217  015C  00BB               	movwf	?_printf+4
  2218  015D  3000               	movlw	0
  2219  015E  00BC               	movwf	?_printf+5
  2220  015F  120A  118A  2395   	fcall	_printf
      +       120A  118A         
  2221                           
  2222                           ;TCC_1.c: 302: _delay((unsigned long)((100)*(8000000/4000000.0)));
  2223  0164  3042               	movlw	66
  2224  0165  1283               	bcf	3,5	;RP0=0, select bank0
  2225  0166  1303               	bcf	3,6	;RP1=0, select bank0
  2226  0167  00C4               	movwf	??_principal
  2227  0168                     u1057:	
  2228  0168  0BC4               	decfsz	??_principal,f
  2229  0169  2968               	goto	u1057
  2230  016A  0000               	nop
  2231  016B  1283               	bcf	3,5	;RP0=0, select bank0
  2232  016C  1303               	bcf	3,6	;RP1=0, select bank0
  2233  016D  084C               	movf	_posicao,w
  2234                           
  2235                           ; Switch size 1, requested type "space"
  2236                           ; Number of cases is 8, Range of values is 0 to 14
  2237                           ; switch strategies available:
  2238                           ; Name         Instructions Cycles
  2239                           ; simple_byte           25    13 (average)
  2240                           ; direct_byte           53     8 (fixed)
  2241                           ; jumptable            260     6 (fixed)
  2242                           ; rangetable            19     6 (fixed)
  2243                           ; spacedrange           36     9 (fixed)
  2244                           ; locatedrange          15     3 (fixed)
  2245                           ;	Chosen strategy is simple_byte
  2246  016E  3A00               	xorlw	0	; case 0
  2247  016F  1903               	skipnz
  2248  0170  28E0               	goto	l1882
  2249  0171  3A01               	xorlw	1	; case 1
  2250  0172  1903               	skipnz
  2251  0173  28EC               	goto	l1884
  2252  0174  3A03               	xorlw	3	; case 2
  2253  0175  1903               	skipnz
  2254  0176  28F8               	goto	l1886
  2255  0177  3A01               	xorlw	1	; case 3
  2256  0178  1903               	skipnz
  2257  0179  2904               	goto	l1888
  2258  017A  3A07               	xorlw	7	; case 4
  2259  017B  1903               	skipnz
  2260  017C  2910               	goto	l1890
  2261  017D  3A01               	xorlw	1	; case 5
  2262  017E  1903               	skipnz
  2263  017F  291C               	goto	l1892
  2264  0180  3A03               	xorlw	3	; case 6
  2265  0181  1903               	skipnz
  2266  0182  2928               	goto	l1894
  2267  0183  3A08               	xorlw	8	; case 14
  2268  0184  1903               	skipnz
  2269  0185  2934               	goto	l1896
  2270  0186  293B               	goto	l1898
  2271  0187  293C               	goto	l187
  2272  0188                     l200:	
  2273                           
  2274                           ;TCC_1.c: 323: }
  2275                           ;TCC_1.c: 324: oi=0;
  2276  0188  1147               	bcf	_oi/(0+8),_oi& (0+7)
  2277                           
  2278                           ;TCC_1.c: 325: _delay((unsigned long)((100)*(8000000/4000.0)));
  2279  0189  3002               	movlw	2
  2280  018A  00C6               	movwf	??_principal+2
  2281  018B  3004               	movlw	4
  2282  018C  00C5               	movwf	??_principal+1
  2283  018D  30BA               	movlw	186
  2284  018E  00C4               	movwf	??_principal
  2285  018F                     u1067:	
  2286  018F  0BC4               	decfsz	??_principal,f
  2287  0190  298F               	goto	u1067
  2288  0191  0BC5               	decfsz	??_principal+1,f
  2289  0192  298F               	goto	u1067
  2290  0193  0BC6               	decfsz	??_principal+2,f
  2291  0194  298F               	goto	u1067
  2292  0195  0000               	nop
  2293                           
  2294                           ;TCC_1.c: 326: portas_1|=(posicao<<4);
  2295  0196  1283               	bcf	3,5	;RP0=0, select bank0
  2296  0197  1303               	bcf	3,6	;RP1=0, select bank0
  2297  0198  084C               	movf	_posicao,w
  2298  0199  00C4               	movwf	??_principal
  2299  019A  3003               	movlw	3
  2300  019B                     u565:	
  2301  019B  1003               	clrc
  2302  019C  0DC4               	rlf	??_principal,f
  2303  019D  3EFF               	addlw	-1
  2304  019E  1D03               	skipz
  2305  019F  299B               	goto	u565
  2306  01A0  1003               	clrc
  2307  01A1  0D44               	rlf	??_principal,w
  2308  01A2  00C5               	movwf	??_principal+1
  2309  01A3  0845               	movf	??_principal+1,w
  2310  01A4  04CA               	iorwf	_portas_1,f
  2311                           
  2312                           ;TCC_1.c: 327: INTCON=0b11011000;
  2313  01A5  30D8               	movlw	216
  2314  01A6  008B               	movwf	11	;volatile
  2315                           
  2316                           ;TCC_1.c: 328: while(!oi){
  2317  01A7  2A04               	goto	l201
  2318  01A8                     l1918:	
  2319                           ;TCC_1.c: 334: case 0: printf("\nPorta 3: AND");
  2320                           
  2321                           ;TCC_1.c: 333: switch(posicao){
  2322                           
  2323  01A8  303E               	movlw	low (STR_39| (0+32768))
  2324  01A9  1283               	bcf	3,5	;RP0=0, select bank0
  2325  01AA  1303               	bcf	3,6	;RP1=0, select bank0
  2326  01AB  00B7               	movwf	?_printf
  2327  01AC  3085               	movlw	high (STR_39| (0+32768))
  2328  01AD  00B8               	movwf	?_printf+1
  2329  01AE  120A  118A  2395   	fcall	_printf
      +       120A  118A         
  2330                           
  2331                           ;TCC_1.c: 335: break;
  2332  01B3  2A04               	goto	l201
  2333  01B4                     l1920:	
  2334                           ;TCC_1.c: 336: case 1: printf("\nPorta 3: NAND");
  2335                           
  2336  01B4  30AB               	movlw	low (STR_40| (0+32768))
  2337  01B5  1283               	bcf	3,5	;RP0=0, select bank0
  2338  01B6  1303               	bcf	3,6	;RP1=0, select bank0
  2339  01B7  00B7               	movwf	?_printf
  2340  01B8  3084               	movlw	high (STR_40| (0+32768))
  2341  01B9  00B8               	movwf	?_printf+1
  2342  01BA  120A  118A  2395   	fcall	_printf
      +       120A  118A         
  2343                           
  2344                           ;TCC_1.c: 337: break;
  2345  01BF  2A04               	goto	l201
  2346  01C0                     l1922:	
  2347                           ;TCC_1.c: 338: case 2: printf("\nPorta 3: OR");
  2348                           
  2349  01C0  301C               	movlw	low (STR_41| (0+32768))
  2350  01C1  1283               	bcf	3,5	;RP0=0, select bank0
  2351  01C2  1303               	bcf	3,6	;RP1=0, select bank0
  2352  01C3  00B7               	movwf	?_printf
  2353  01C4  3086               	movlw	high (STR_41| (0+32768))
  2354  01C5  00B8               	movwf	?_printf+1
  2355  01C6  120A  118A  2395   	fcall	_printf
      +       120A  118A         
  2356                           
  2357                           ;TCC_1.c: 339: break;
  2358  01CB  2A04               	goto	l201
  2359  01CC                     l1924:	
  2360                           ;TCC_1.c: 340: case 3: printf("\nPorta 3: NOR");
  2361                           
  2362  01CC  3076               	movlw	low (STR_42| (0+32768))
  2363  01CD  1283               	bcf	3,5	;RP0=0, select bank0
  2364  01CE  1303               	bcf	3,6	;RP1=0, select bank0
  2365  01CF  00B7               	movwf	?_printf
  2366  01D0  3085               	movlw	high (STR_42| (0+32768))
  2367  01D1  00B8               	movwf	?_printf+1
  2368  01D2  120A  118A  2395   	fcall	_printf
      +       120A  118A         
  2369                           
  2370                           ;TCC_1.c: 341: break;
  2371  01D7  2A04               	goto	l201
  2372  01D8                     l1926:	
  2373                           ;TCC_1.c: 342: case 4: printf("\nPorta 3: XOR");
  2374                           
  2375  01D8  30AE               	movlw	low (STR_43| (0+32768))
  2376  01D9  1283               	bcf	3,5	;RP0=0, select bank0
  2377  01DA  1303               	bcf	3,6	;RP1=0, select bank0
  2378  01DB  00B7               	movwf	?_printf
  2379  01DC  3085               	movlw	high (STR_43| (0+32768))
  2380  01DD  00B8               	movwf	?_printf+1
  2381  01DE  120A  118A  2395   	fcall	_printf
      +       120A  118A         
  2382                           
  2383                           ;TCC_1.c: 343: break;
  2384  01E3  2A04               	goto	l201
  2385  01E4                     l1928:	
  2386                           ;TCC_1.c: 344: case 5: printf("\nPorta 3: XNOR");
  2387                           
  2388  01E4  30E7               	movlw	low (STR_44| (0+32768))
  2389  01E5  1283               	bcf	3,5	;RP0=0, select bank0
  2390  01E6  1303               	bcf	3,6	;RP1=0, select bank0
  2391  01E7  00B7               	movwf	?_printf
  2392  01E8  3084               	movlw	high (STR_44| (0+32768))
  2393  01E9  00B8               	movwf	?_printf+1
  2394  01EA  120A  118A  2395   	fcall	_printf
      +       120A  118A         
  2395                           
  2396                           ;TCC_1.c: 345: break;
  2397  01EF  2A04               	goto	l201
  2398  01F0                     l1930:	
  2399                           ;TCC_1.c: 346: case 6: printf("\nPorta 3: NOT");
  2400                           
  2401  01F0  30E6               	movlw	low (STR_45| (0+32768))
  2402  01F1  1283               	bcf	3,5	;RP0=0, select bank0
  2403  01F2  1303               	bcf	3,6	;RP1=0, select bank0
  2404  01F3  00B7               	movwf	?_printf
  2405  01F4  3085               	movlw	high (STR_45| (0+32768))
  2406  01F5  00B8               	movwf	?_printf+1
  2407  01F6  120A  118A  2395   	fcall	_printf
      +       120A  118A         
  2408                           
  2409                           ;TCC_1.c: 347: break;
  2410  01FB  2A04               	goto	l201
  2411  01FC                     l1932:	
  2412                           ;TCC_1.c: 348: case 14:posicao=6;
  2413                           
  2414  01FC  3006               	movlw	6
  2415  01FD  1283               	bcf	3,5	;RP0=0, select bank0
  2416  01FE  1303               	bcf	3,6	;RP1=0, select bank0
  2417  01FF  00C4               	movwf	??_principal
  2418  0200  0844               	movf	??_principal,w
  2419  0201  00CC               	movwf	_posicao
  2420                           
  2421                           ;TCC_1.c: 349: break;
  2422  0202  2A04               	goto	l201
  2423  0203                     l1934:	
  2424                           ;TCC_1.c: 350: default:posicao=0;
  2425                           
  2426  0203  01CC               	clrf	_posicao
  2427  0204                     l201:	
  2428                           ;TCC_1.c: 352: }
  2429                           
  2430                           ;TCC_1.c: 351: break;
  2431                           
  2432  0204  1283               	bcf	3,5	;RP0=0, select bank0
  2433  0205  1303               	bcf	3,6	;RP1=0, select bank0
  2434  0206  1947               	btfsc	_oi/(0+8),_oi& (0+7)
  2435  0207  2A50               	goto	l214
  2436                           
  2437                           ;TCC_1.c: 329: _delay((unsigned long)((200)*(8000000/4000.0)));
  2438  0208  3003               	movlw	3
  2439  0209  00C6               	movwf	??_principal+2
  2440  020A  3008               	movlw	8
  2441  020B  00C5               	movwf	??_principal+1
  2442  020C  3078               	movlw	120
  2443  020D  00C4               	movwf	??_principal
  2444  020E                     u1077:	
  2445  020E  0BC4               	decfsz	??_principal,f
  2446  020F  2A0E               	goto	u1077
  2447  0210  0BC5               	decfsz	??_principal+1,f
  2448  0211  2A0E               	goto	u1077
  2449  0212  0BC6               	decfsz	??_principal+2,f
  2450  0213  2A0E               	goto	u1077
  2451                           
  2452                           ;TCC_1.c: 330: lcd_clear();
  2453  0214  120A  158A  2168   	fcall	_lcd_clear
      +       120A  118A         
  2454                           
  2455                           ;TCC_1.c: 331: printf("%c  SCID-2013   %c",0,0);
  2456  0219  3057               	movlw	low (STR_2| (0+32768))
  2457  021A  1283               	bcf	3,5	;RP0=0, select bank0
  2458  021B  1303               	bcf	3,6	;RP1=0, select bank0
  2459  021C  00B7               	movwf	?_printf
  2460  021D  3084               	movlw	high (STR_2| (0+32768))
  2461  021E  00B8               	movwf	?_printf+1
  2462  021F  3000               	movlw	0
  2463  0220  00B9               	movwf	?_printf+2
  2464  0221  3000               	movlw	0
  2465  0222  00BA               	movwf	?_printf+3
  2466  0223  3000               	movlw	0
  2467  0224  00BB               	movwf	?_printf+4
  2468  0225  3000               	movlw	0
  2469  0226  00BC               	movwf	?_printf+5
  2470  0227  120A  118A  2395   	fcall	_printf
      +       120A  118A         
  2471                           
  2472                           ;TCC_1.c: 332: _delay((unsigned long)((100)*(8000000/4000000.0)));
  2473  022C  3042               	movlw	66
  2474  022D  1283               	bcf	3,5	;RP0=0, select bank0
  2475  022E  1303               	bcf	3,6	;RP1=0, select bank0
  2476  022F  00C4               	movwf	??_principal
  2477  0230                     u1087:	
  2478  0230  0BC4               	decfsz	??_principal,f
  2479  0231  2A30               	goto	u1087
  2480  0232  0000               	nop
  2481  0233  1283               	bcf	3,5	;RP0=0, select bank0
  2482  0234  1303               	bcf	3,6	;RP1=0, select bank0
  2483  0235  084C               	movf	_posicao,w
  2484                           
  2485                           ; Switch size 1, requested type "space"
  2486                           ; Number of cases is 8, Range of values is 0 to 14
  2487                           ; switch strategies available:
  2488                           ; Name         Instructions Cycles
  2489                           ; simple_byte           25    13 (average)
  2490                           ; direct_byte           53     8 (fixed)
  2491                           ; jumptable            260     6 (fixed)
  2492                           ; rangetable            19     6 (fixed)
  2493                           ; spacedrange           36     9 (fixed)
  2494                           ; locatedrange          15     3 (fixed)
  2495                           ;	Chosen strategy is simple_byte
  2496  0236  3A00               	xorlw	0	; case 0
  2497  0237  1903               	skipnz
  2498  0238  29A8               	goto	l1918
  2499  0239  3A01               	xorlw	1	; case 1
  2500  023A  1903               	skipnz
  2501  023B  29B4               	goto	l1920
  2502  023C  3A03               	xorlw	3	; case 2
  2503  023D  1903               	skipnz
  2504  023E  29C0               	goto	l1922
  2505  023F  3A01               	xorlw	1	; case 3
  2506  0240  1903               	skipnz
  2507  0241  29CC               	goto	l1924
  2508  0242  3A07               	xorlw	7	; case 4
  2509  0243  1903               	skipnz
  2510  0244  29D8               	goto	l1926
  2511  0245  3A01               	xorlw	1	; case 5
  2512  0246  1903               	skipnz
  2513  0247  29E4               	goto	l1928
  2514  0248  3A03               	xorlw	3	; case 6
  2515  0249  1903               	skipnz
  2516  024A  29F0               	goto	l1930
  2517  024B  3A08               	xorlw	8	; case 14
  2518  024C  1903               	skipnz
  2519  024D  29FC               	goto	l1932
  2520  024E  2A03               	goto	l1934
  2521  024F  2A04               	goto	l201
  2522  0250                     l214:	
  2523                           
  2524                           ;TCC_1.c: 353: }
  2525                           ;TCC_1.c: 354: oi=0;
  2526  0250  1147               	bcf	_oi/(0+8),_oi& (0+7)
  2527                           
  2528                           ;TCC_1.c: 355: _delay((unsigned long)((100)*(8000000/4000.0)));
  2529  0251  3002               	movlw	2
  2530  0252  00C6               	movwf	??_principal+2
  2531  0253  3004               	movlw	4
  2532  0254  00C5               	movwf	??_principal+1
  2533  0255  30BA               	movlw	186
  2534  0256  00C4               	movwf	??_principal
  2535  0257                     u1097:	
  2536  0257  0BC4               	decfsz	??_principal,f
  2537  0258  2A57               	goto	u1097
  2538  0259  0BC5               	decfsz	??_principal+1,f
  2539  025A  2A57               	goto	u1097
  2540  025B  0BC6               	decfsz	??_principal+2,f
  2541  025C  2A57               	goto	u1097
  2542  025D  0000               	nop
  2543                           
  2544                           ;TCC_1.c: 356: portas_2|=posicao;
  2545  025E  1283               	bcf	3,5	;RP0=0, select bank0
  2546  025F  1303               	bcf	3,6	;RP1=0, select bank0
  2547  0260  084C               	movf	_posicao,w
  2548  0261  00C4               	movwf	??_principal
  2549  0262  0844               	movf	??_principal,w
  2550  0263  04CB               	iorwf	_portas_2,f
  2551                           
  2552                           ;TCC_1.c: 357: INTCON=0b11011000;
  2553  0264  30D8               	movlw	216
  2554  0265  008B               	movwf	11	;volatile
  2555                           
  2556                           ;TCC_1.c: 358: while(!oi){
  2557  0266  2AC3               	goto	l215
  2558  0267                     l1954:	
  2559                           ;TCC_1.c: 364: case 0: printf("\nPorta 4: AND");
  2560                           
  2561                           ;TCC_1.c: 363: switch(posicao){
  2562                           
  2563  0267  304C               	movlw	low (STR_47| (0+32768))
  2564  0268  1283               	bcf	3,5	;RP0=0, select bank0
  2565  0269  1303               	bcf	3,6	;RP1=0, select bank0
  2566  026A  00B7               	movwf	?_printf
  2567  026B  3085               	movlw	high (STR_47| (0+32768))
  2568  026C  00B8               	movwf	?_printf+1
  2569  026D  120A  118A  2395   	fcall	_printf
      +       120A  118A         
  2570                           
  2571                           ;TCC_1.c: 365: break;
  2572  0272  2AC3               	goto	l215
  2573  0273                     l1956:	
  2574                           ;TCC_1.c: 366: case 1: printf("\nPorta 4: NAND");
  2575                           
  2576  0273  30BA               	movlw	low (STR_48| (0+32768))
  2577  0274  1283               	bcf	3,5	;RP0=0, select bank0
  2578  0275  1303               	bcf	3,6	;RP1=0, select bank0
  2579  0276  00B7               	movwf	?_printf
  2580  0277  3084               	movlw	high (STR_48| (0+32768))
  2581  0278  00B8               	movwf	?_printf+1
  2582  0279  120A  118A  2395   	fcall	_printf
      +       120A  118A         
  2583                           
  2584                           ;TCC_1.c: 367: break;
  2585  027E  2AC3               	goto	l215
  2586  027F                     l1958:	
  2587                           ;TCC_1.c: 368: case 2: printf("\nPorta 4: OR");
  2588                           
  2589  027F  3029               	movlw	low (STR_49| (0+32768))
  2590  0280  1283               	bcf	3,5	;RP0=0, select bank0
  2591  0281  1303               	bcf	3,6	;RP1=0, select bank0
  2592  0282  00B7               	movwf	?_printf
  2593  0283  3086               	movlw	high (STR_49| (0+32768))
  2594  0284  00B8               	movwf	?_printf+1
  2595  0285  120A  118A  2395   	fcall	_printf
      +       120A  118A         
  2596                           
  2597                           ;TCC_1.c: 369: break;
  2598  028A  2AC3               	goto	l215
  2599  028B                     l1960:	
  2600                           ;TCC_1.c: 370: case 3: printf("\nPorta 4: NOR");
  2601                           
  2602  028B  3084               	movlw	low (STR_50| (0+32768))
  2603  028C  1283               	bcf	3,5	;RP0=0, select bank0
  2604  028D  1303               	bcf	3,6	;RP1=0, select bank0
  2605  028E  00B7               	movwf	?_printf
  2606  028F  3085               	movlw	high (STR_50| (0+32768))
  2607  0290  00B8               	movwf	?_printf+1
  2608  0291  120A  118A  2395   	fcall	_printf
      +       120A  118A         
  2609                           
  2610                           ;TCC_1.c: 371: break;
  2611  0296  2AC3               	goto	l215
  2612  0297                     l1962:	
  2613                           ;TCC_1.c: 372: case 4: printf("\nPorta 4: XOR");
  2614                           
  2615  0297  30BC               	movlw	low (STR_51| (0+32768))
  2616  0298  1283               	bcf	3,5	;RP0=0, select bank0
  2617  0299  1303               	bcf	3,6	;RP1=0, select bank0
  2618  029A  00B7               	movwf	?_printf
  2619  029B  3085               	movlw	high (STR_51| (0+32768))
  2620  029C  00B8               	movwf	?_printf+1
  2621  029D  120A  118A  2395   	fcall	_printf
      +       120A  118A         
  2622                           
  2623                           ;TCC_1.c: 373: break;
  2624  02A2  2AC3               	goto	l215
  2625  02A3                     l1964:	
  2626                           ;TCC_1.c: 374: case 5: printf("\nPorta 4: XNOR");
  2627                           
  2628  02A3  30F6               	movlw	low (STR_52| (0+32768))
  2629  02A4  1283               	bcf	3,5	;RP0=0, select bank0
  2630  02A5  1303               	bcf	3,6	;RP1=0, select bank0
  2631  02A6  00B7               	movwf	?_printf
  2632  02A7  3084               	movlw	high (STR_52| (0+32768))
  2633  02A8  00B8               	movwf	?_printf+1
  2634  02A9  120A  118A  2395   	fcall	_printf
      +       120A  118A         
  2635                           
  2636                           ;TCC_1.c: 375: break;
  2637  02AE  2AC3               	goto	l215
  2638  02AF                     l1966:	
  2639                           ;TCC_1.c: 376: case 6: printf("\nPorta 4: NOT");
  2640                           
  2641  02AF  30F4               	movlw	low (STR_53| (0+32768))
  2642  02B0  1283               	bcf	3,5	;RP0=0, select bank0
  2643  02B1  1303               	bcf	3,6	;RP1=0, select bank0
  2644  02B2  00B7               	movwf	?_printf
  2645  02B3  3085               	movlw	high (STR_53| (0+32768))
  2646  02B4  00B8               	movwf	?_printf+1
  2647  02B5  120A  118A  2395   	fcall	_printf
      +       120A  118A         
  2648                           
  2649                           ;TCC_1.c: 377: break;
  2650  02BA  2AC3               	goto	l215
  2651  02BB                     l1968:	
  2652                           ;TCC_1.c: 378: case 14:posicao=6;
  2653                           
  2654  02BB  3006               	movlw	6
  2655  02BC  1283               	bcf	3,5	;RP0=0, select bank0
  2656  02BD  1303               	bcf	3,6	;RP1=0, select bank0
  2657  02BE  00C4               	movwf	??_principal
  2658  02BF  0844               	movf	??_principal,w
  2659  02C0  00CC               	movwf	_posicao
  2660                           
  2661                           ;TCC_1.c: 379: break;
  2662  02C1  2AC3               	goto	l215
  2663  02C2                     l1970:	
  2664                           ;TCC_1.c: 380: default:posicao=0;
  2665                           
  2666  02C2  01CC               	clrf	_posicao
  2667  02C3                     l215:	
  2668                           ;TCC_1.c: 382: }
  2669                           
  2670                           ;TCC_1.c: 381: break;
  2671                           
  2672  02C3  1283               	bcf	3,5	;RP0=0, select bank0
  2673  02C4  1303               	bcf	3,6	;RP1=0, select bank0
  2674  02C5  1947               	btfsc	_oi/(0+8),_oi& (0+7)
  2675  02C6  2B0F               	goto	l228
  2676                           
  2677                           ;TCC_1.c: 359: _delay((unsigned long)((200)*(8000000/4000.0)));
  2678  02C7  3003               	movlw	3
  2679  02C8  00C6               	movwf	??_principal+2
  2680  02C9  3008               	movlw	8
  2681  02CA  00C5               	movwf	??_principal+1
  2682  02CB  3078               	movlw	120
  2683  02CC  00C4               	movwf	??_principal
  2684  02CD                     u1107:	
  2685  02CD  0BC4               	decfsz	??_principal,f
  2686  02CE  2ACD               	goto	u1107
  2687  02CF  0BC5               	decfsz	??_principal+1,f
  2688  02D0  2ACD               	goto	u1107
  2689  02D1  0BC6               	decfsz	??_principal+2,f
  2690  02D2  2ACD               	goto	u1107
  2691                           
  2692                           ;TCC_1.c: 360: lcd_clear();
  2693  02D3  120A  158A  2168   	fcall	_lcd_clear
      +       120A  118A         
  2694                           
  2695                           ;TCC_1.c: 361: printf("%c  SCID-2013   %c",0,0);
  2696  02D8  3057               	movlw	low (STR_2| (0+32768))
  2697  02D9  1283               	bcf	3,5	;RP0=0, select bank0
  2698  02DA  1303               	bcf	3,6	;RP1=0, select bank0
  2699  02DB  00B7               	movwf	?_printf
  2700  02DC  3084               	movlw	high (STR_2| (0+32768))
  2701  02DD  00B8               	movwf	?_printf+1
  2702  02DE  3000               	movlw	0
  2703  02DF  00B9               	movwf	?_printf+2
  2704  02E0  3000               	movlw	0
  2705  02E1  00BA               	movwf	?_printf+3
  2706  02E2  3000               	movlw	0
  2707  02E3  00BB               	movwf	?_printf+4
  2708  02E4  3000               	movlw	0
  2709  02E5  00BC               	movwf	?_printf+5
  2710  02E6  120A  118A  2395   	fcall	_printf
      +       120A  118A         
  2711                           
  2712                           ;TCC_1.c: 362: _delay((unsigned long)((100)*(8000000/4000000.0)));
  2713  02EB  3042               	movlw	66
  2714  02EC  1283               	bcf	3,5	;RP0=0, select bank0
  2715  02ED  1303               	bcf	3,6	;RP1=0, select bank0
  2716  02EE  00C4               	movwf	??_principal
  2717  02EF                     u1117:	
  2718  02EF  0BC4               	decfsz	??_principal,f
  2719  02F0  2AEF               	goto	u1117
  2720  02F1  0000               	nop
  2721  02F2  1283               	bcf	3,5	;RP0=0, select bank0
  2722  02F3  1303               	bcf	3,6	;RP1=0, select bank0
  2723  02F4  084C               	movf	_posicao,w
  2724                           
  2725                           ; Switch size 1, requested type "space"
  2726                           ; Number of cases is 8, Range of values is 0 to 14
  2727                           ; switch strategies available:
  2728                           ; Name         Instructions Cycles
  2729                           ; simple_byte           25    13 (average)
  2730                           ; direct_byte           53     8 (fixed)
  2731                           ; jumptable            260     6 (fixed)
  2732                           ; rangetable            19     6 (fixed)
  2733                           ; spacedrange           36     9 (fixed)
  2734                           ; locatedrange          15     3 (fixed)
  2735                           ;	Chosen strategy is simple_byte
  2736  02F5  3A00               	xorlw	0	; case 0
  2737  02F6  1903               	skipnz
  2738  02F7  2A67               	goto	l1954
  2739  02F8  3A01               	xorlw	1	; case 1
  2740  02F9  1903               	skipnz
  2741  02FA  2A73               	goto	l1956
  2742  02FB  3A03               	xorlw	3	; case 2
  2743  02FC  1903               	skipnz
  2744  02FD  2A7F               	goto	l1958
  2745  02FE  3A01               	xorlw	1	; case 3
  2746  02FF  1903               	skipnz
  2747  0300  2A8B               	goto	l1960
  2748  0301  3A07               	xorlw	7	; case 4
  2749  0302  1903               	skipnz
  2750  0303  2A97               	goto	l1962
  2751  0304  3A01               	xorlw	1	; case 5
  2752  0305  1903               	skipnz
  2753  0306  2AA3               	goto	l1964
  2754  0307  3A03               	xorlw	3	; case 6
  2755  0308  1903               	skipnz
  2756  0309  2AAF               	goto	l1966
  2757  030A  3A08               	xorlw	8	; case 14
  2758  030B  1903               	skipnz
  2759  030C  2ABB               	goto	l1968
  2760  030D  2AC2               	goto	l1970
  2761  030E  2AC3               	goto	l215
  2762  030F                     l228:	
  2763                           
  2764                           ;TCC_1.c: 383: }
  2765                           ;TCC_1.c: 384: oi=0;
  2766  030F  1147               	bcf	_oi/(0+8),_oi& (0+7)
  2767                           
  2768                           ;TCC_1.c: 385: _delay((unsigned long)((100)*(8000000/4000.0)));
  2769  0310  3002               	movlw	2
  2770  0311  00C6               	movwf	??_principal+2
  2771  0312  3004               	movlw	4
  2772  0313  00C5               	movwf	??_principal+1
  2773  0314  30BA               	movlw	186
  2774  0315  00C4               	movwf	??_principal
  2775  0316                     u1127:	
  2776  0316  0BC4               	decfsz	??_principal,f
  2777  0317  2B16               	goto	u1127
  2778  0318  0BC5               	decfsz	??_principal+1,f
  2779  0319  2B16               	goto	u1127
  2780  031A  0BC6               	decfsz	??_principal+2,f
  2781  031B  2B16               	goto	u1127
  2782  031C  0000               	nop
  2783                           
  2784                           ;TCC_1.c: 386: portas_2|=(posicao<<4);
  2785  031D  1283               	bcf	3,5	;RP0=0, select bank0
  2786  031E  1303               	bcf	3,6	;RP1=0, select bank0
  2787  031F  084C               	movf	_posicao,w
  2788  0320  00C4               	movwf	??_principal
  2789  0321  3003               	movlw	3
  2790  0322                     u595:	
  2791  0322  1003               	clrc
  2792  0323  0DC4               	rlf	??_principal,f
  2793  0324  3EFF               	addlw	-1
  2794  0325  1D03               	skipz
  2795  0326  2B22               	goto	u595
  2796  0327  1003               	clrc
  2797  0328  0D44               	rlf	??_principal,w
  2798  0329  00C5               	movwf	??_principal+1
  2799  032A  0845               	movf	??_principal+1,w
  2800  032B  04CB               	iorwf	_portas_2,f
  2801                           
  2802                           ;TCC_1.c: 387: RC1=1;
  2803  032C  1487               	bsf	7,1	;volatile
  2804                           
  2805                           ;TCC_1.c: 388: ok=spi_read(0xBD);
  2806  032D  30BD               	movlw	189
  2807  032E  120A  158A  214F   	fcall	_spi_read
      +       120A  118A         
  2808  0333  1283               	bcf	3,5	;RP0=0, select bank0
  2809  0334  1303               	bcf	3,6	;RP1=0, select bank0
  2810  0335  00C4               	movwf	??_principal
  2811  0336  0844               	movf	??_principal,w
  2812  0337  00CF               	movwf	_ok
  2813                           
  2814                           ;TCC_1.c: 389: if(ok==0xAA){
  2815  0338  084F               	movf	_ok,w
  2816  0339  3AAA               	xorlw	170
  2817  033A  1D03               	skipz
  2818  033B  2B50               	goto	l1990
  2819                           
  2820                           ;TCC_1.c: 390: ok=spi_read(portas_1);
  2821  033C  084A               	movf	_portas_1,w
  2822  033D  120A  158A  214F   	fcall	_spi_read
      +       120A  118A         
  2823  0342  1283               	bcf	3,5	;RP0=0, select bank0
  2824  0343  1303               	bcf	3,6	;RP1=0, select bank0
  2825  0344  00C4               	movwf	??_principal
  2826  0345  0844               	movf	??_principal,w
  2827  0346  00CF               	movwf	_ok
  2828                           
  2829                           ;TCC_1.c: 391: _delay((unsigned long)((50)*(8000000/4000.0)));
  2830  0347  3082               	movlw	130
  2831  0348  00C5               	movwf	??_principal+1
  2832  0349  30DD               	movlw	221
  2833  034A  00C4               	movwf	??_principal
  2834  034B                     u1137:	
  2835  034B  0BC4               	decfsz	??_principal,f
  2836  034C  2B4B               	goto	u1137
  2837  034D  0BC5               	decfsz	??_principal+1,f
  2838  034E  2B4B               	goto	u1137
  2839  034F  2B50               	nop2
  2840  0350                     l1990:	
  2841                           
  2842                           ;TCC_1.c: 392: }
  2843                           ;TCC_1.c: 393: ok=spi_read(0xBE);
  2844  0350  30BE               	movlw	190
  2845  0351  120A  158A  214F   	fcall	_spi_read
      +       120A  118A         
  2846  0356  1283               	bcf	3,5	;RP0=0, select bank0
  2847  0357  1303               	bcf	3,6	;RP1=0, select bank0
  2848  0358  00C4               	movwf	??_principal
  2849  0359  0844               	movf	??_principal,w
  2850  035A  00CF               	movwf	_ok
  2851                           
  2852                           ;TCC_1.c: 394: if(ok==0xAA){
  2853  035B  084F               	movf	_ok,w
  2854  035C  3AAA               	xorlw	170
  2855  035D  1D03               	skipz
  2856  035E  2B73               	goto	l1996
  2857                           
  2858                           ;TCC_1.c: 395: ok=spi_read(portas_2);
  2859  035F  084B               	movf	_portas_2,w
  2860  0360  120A  158A  214F   	fcall	_spi_read
      +       120A  118A         
  2861  0365  1283               	bcf	3,5	;RP0=0, select bank0
  2862  0366  1303               	bcf	3,6	;RP1=0, select bank0
  2863  0367  00C4               	movwf	??_principal
  2864  0368  0844               	movf	??_principal,w
  2865  0369  00CF               	movwf	_ok
  2866                           
  2867                           ;TCC_1.c: 396: _delay((unsigned long)((50)*(8000000/4000.0)));
  2868  036A  3082               	movlw	130
  2869  036B  00C5               	movwf	??_principal+1
  2870  036C  30DD               	movlw	221
  2871  036D  00C4               	movwf	??_principal
  2872  036E                     u1147:	
  2873  036E  0BC4               	decfsz	??_principal,f
  2874  036F  2B6E               	goto	u1147
  2875  0370  0BC5               	decfsz	??_principal+1,f
  2876  0371  2B6E               	goto	u1147
  2877  0372  2B73               	nop2
  2878  0373                     l1996:	
  2879                           
  2880                           ;TCC_1.c: 397: }
  2881                           ;TCC_1.c: 398: ok=spi_read(0xCC);
  2882  0373  30CC               	movlw	204
  2883  0374  120A  158A  214F   	fcall	_spi_read
      +       120A  118A         
  2884  0379  1283               	bcf	3,5	;RP0=0, select bank0
  2885  037A  1303               	bcf	3,6	;RP1=0, select bank0
  2886  037B  00C4               	movwf	??_principal
  2887  037C  0844               	movf	??_principal,w
  2888  037D  00CF               	movwf	_ok
  2889                           
  2890                           ;TCC_1.c: 399: if(ok==portas_2){
  2891  037E  084F               	movf	_ok,w
  2892  037F  064B               	xorwf	_portas_2,w
  2893  0380  1D03               	skipz
  2894  0381  2B89               	goto	l2004
  2895                           
  2896                           ;TCC_1.c: 400: cont=0;
  2897  0382  01C8               	clrf	_cont
  2898                           
  2899                           ;TCC_1.c: 401: RC1=0;
  2900  0383  1087               	bcf	7,1	;volatile
  2901                           
  2902                           ;TCC_1.c: 402: bip();
  2903  0384  120A  158A  2274   	fcall	_bip
      +       120A  118A         
  2904  0389                     l2004:	
  2905                           
  2906                           ;TCC_1.c: 403: }
  2907                           ;TCC_1.c: 404: selec_portas=0;
  2908  0389  1283               	bcf	3,5	;RP0=0, select bank0
  2909  038A  1303               	bcf	3,6	;RP1=0, select bank0
  2910  038B  1247               	bcf	_selec_portas/(0+8),_selec_portas& (0+7)
  2911                           
  2912                           ;TCC_1.c: 405: INTCON=0b11011000;
  2913  038C  30D8               	movlw	216
  2914  038D  008B               	movwf	11	;volatile
  2915                           
  2916                           ;TCC_1.c: 406: posicao=0;
  2917  038E  01CC               	clrf	_posicao
  2918                           
  2919                           ;TCC_1.c: 407: menu();
  2920  038F  120A  158A  257B   	fcall	_menu
      +       120A  118A         
  2921  0394  2815               	goto	l170
  2922  0395                     __end_of_principal:	
  2923                           
  2924                           	psect	text3
  2925  0A74                     __ptext3:	
  2926 ;; *************** function _bip *****************
  2927 ;; Defined at:
  2928 ;;		line 249 in file "TCC_1.c"
  2929 ;; Parameters:    Size  Location     Type
  2930 ;;		None
  2931 ;; Auto vars:     Size  Location     Type
  2932 ;;		None
  2933 ;; Return value:  Size  Location     Type
  2934 ;;		None               void
  2935 ;; Registers used:
  2936 ;;		wreg
  2937 ;; Tracked objects:
  2938 ;;		On entry : 0/0
  2939 ;;		On exit  : 0/0
  2940 ;;		Unchanged: 0/0
  2941 ;; Data sizes:     COMMON   BANK0   BANK1   BANK3   BANK2
  2942 ;;      Params:         0       0       0       0       0
  2943 ;;      Locals:         0       0       0       0       0
  2944 ;;      Temps:          0       3       0       0       0
  2945 ;;      Totals:         0       3       0       0       0
  2946 ;;Total ram usage:        3 bytes
  2947 ;; Hardware stack levels used:    1
  2948 ;; Hardware stack levels required when called:    7
  2949 ;; This function calls:
  2950 ;;		Nothing
  2951 ;; This function is called by:
  2952 ;;		_principal
  2953 ;; This function uses a non-reentrant model
  2954 ;;
  2955                           
  2956                           
  2957                           ;psect for function _bip
  2958  0A74                     _bip:	
  2959                           
  2960                           ;TCC_1.c: 251: RC0=1;
  2961                           
  2962                           ;incstack = 0
  2963 ;; hardware stack exceeded
  2964                           ; Regs used in _bip: [wreg]
  2965  0A74  1283               	bcf	3,5	;RP0=0, select bank0
  2966  0A75  1303               	bcf	3,6	;RP1=0, select bank0
  2967  0A76  1407               	bsf	7,0	;volatile
  2968                           
  2969                           ;TCC_1.c: 252: _delay((unsigned long)((100)*(8000000/4000.0)));
  2970  0A77  3002               	movlw	2
  2971  0A78  00B2               	movwf	??_bip+2
  2972  0A79  3004               	movlw	4
  2973  0A7A  00B1               	movwf	??_bip+1
  2974  0A7B  30BA               	movlw	186
  2975  0A7C  00B0               	movwf	??_bip
  2976  0A7D                     u1157:	
  2977  0A7D  0BB0               	decfsz	??_bip,f
  2978  0A7E  2A7D               	goto	u1157
  2979  0A7F  0BB1               	decfsz	??_bip+1,f
  2980  0A80  2A7D               	goto	u1157
  2981  0A81  0BB2               	decfsz	??_bip+2,f
  2982  0A82  2A7D               	goto	u1157
  2983  0A83  0000               	nop
  2984                           
  2985                           ;TCC_1.c: 253: RC0=0;
  2986  0A84  1283               	bcf	3,5	;RP0=0, select bank0
  2987  0A85  1303               	bcf	3,6	;RP1=0, select bank0
  2988  0A86  1007               	bcf	7,0	;volatile
  2989                           
  2990                           ;TCC_1.c: 254: _delay((unsigned long)((50)*(8000000/4000.0)));
  2991  0A87  3082               	movlw	130
  2992  0A88  00B1               	movwf	??_bip+1
  2993  0A89  30DD               	movlw	221
  2994  0A8A  00B0               	movwf	??_bip
  2995  0A8B                     u1167:	
  2996  0A8B  0BB0               	decfsz	??_bip,f
  2997  0A8C  2A8B               	goto	u1167
  2998  0A8D  0BB1               	decfsz	??_bip+1,f
  2999  0A8E  2A8B               	goto	u1167
  3000  0A8F  2A90               	nop2
  3001                           
  3002                           ;TCC_1.c: 255: RC0=1;
  3003  0A90  1283               	bcf	3,5	;RP0=0, select bank0
  3004  0A91  1303               	bcf	3,6	;RP1=0, select bank0
  3005  0A92  1407               	bsf	7,0	;volatile
  3006                           
  3007                           ;TCC_1.c: 256: _delay((unsigned long)((100)*(8000000/4000.0)));
  3008  0A93  3002               	movlw	2
  3009  0A94  00B2               	movwf	??_bip+2
  3010  0A95  3004               	movlw	4
  3011  0A96  00B1               	movwf	??_bip+1
  3012  0A97  30BA               	movlw	186
  3013  0A98  00B0               	movwf	??_bip
  3014  0A99                     u1177:	
  3015  0A99  0BB0               	decfsz	??_bip,f
  3016  0A9A  2A99               	goto	u1177
  3017  0A9B  0BB1               	decfsz	??_bip+1,f
  3018  0A9C  2A99               	goto	u1177
  3019  0A9D  0BB2               	decfsz	??_bip+2,f
  3020  0A9E  2A99               	goto	u1177
  3021  0A9F  0000               	nop
  3022                           
  3023                           ;TCC_1.c: 257: RC0=0;
  3024  0AA0  1283               	bcf	3,5	;RP0=0, select bank0
  3025  0AA1  1303               	bcf	3,6	;RP1=0, select bank0
  3026  0AA2  1007               	bcf	7,0	;volatile
  3027  0AA3  0008               	return
  3028  0AA4                     __end_of_bip:	
  3029                           
  3030                           	psect	text4
  3031  0D7B                     __ptext4:	
  3032 ;; *************** function _menu *****************
  3033 ;; Defined at:
  3034 ;;		line 175 in file "TCC_1.c"
  3035 ;; Parameters:    Size  Location     Type
  3036 ;;		None
  3037 ;; Auto vars:     Size  Location     Type
  3038 ;;		None
  3039 ;; Return value:  Size  Location     Type
  3040 ;;		None               void
  3041 ;; Registers used:
  3042 ;;		wreg, fsr0l, fsr0h, fsr1l, fsr1h, fsr1l, fsr1h, status,2, status,0, btemp+1, pclath, cstack
  3043 ;; Tracked objects:
  3044 ;;		On entry : 0/0
  3045 ;;		On exit  : 0/0
  3046 ;;		Unchanged: 0/0
  3047 ;; Data sizes:     COMMON   BANK0   BANK1   BANK3   BANK2
  3048 ;;      Params:         0       0       0       0       0
  3049 ;;      Locals:         0       0       0       0       0
  3050 ;;      Temps:          0       1       0       0       0
  3051 ;;      Totals:         0       1       0       0       0
  3052 ;;Total ram usage:        1 bytes
  3053 ;; Hardware stack levels used:    1
  3054 ;; Hardware stack levels required when called:   12
  3055 ;; This function calls:
  3056 ;;		_lcd_clear
  3057 ;;		_printf
  3058 ;; This function is called by:
  3059 ;;		_principal
  3060 ;; This function uses a non-reentrant model
  3061 ;;
  3062                           
  3063                           
  3064                           ;psect for function _menu
  3065  0D7B                     _menu:	
  3066                           
  3067                           ;TCC_1.c: 177: lcd_clear();
  3068                           
  3069                           ;incstack = 0
  3070 ;; hardware stack exceeded
  3071                           ; Regs used in _menu: [allreg]
  3072  0D7B  120A  158A  2168   	fcall	_lcd_clear
      +       120A  158A         
  3073                           
  3074                           ;TCC_1.c: 178: printf("%c  SCID-2013   %c\n",0,0);
  3075  0D80  3043               	movlw	low (STR_4| (0+32768))
  3076  0D81  1283               	bcf	3,5	;RP0=0, select bank0
  3077  0D82  1303               	bcf	3,6	;RP1=0, select bank0
  3078  0D83  00B7               	movwf	?_printf
  3079  0D84  3084               	movlw	high (STR_4| (0+32768))
  3080  0D85  00B8               	movwf	?_printf+1
  3081  0D86  3000               	movlw	0
  3082  0D87  00B9               	movwf	?_printf+2
  3083  0D88  3000               	movlw	0
  3084  0D89  00BA               	movwf	?_printf+3
  3085  0D8A  3000               	movlw	0
  3086  0D8B  00BB               	movwf	?_printf+4
  3087  0D8C  3000               	movlw	0
  3088  0D8D  00BC               	movwf	?_printf+5
  3089  0D8E  120A  118A  2395   	fcall	_printf
      +       120A  158A         
  3090                           
  3091                           ;TCC_1.c: 179: _delay((unsigned long)((100)*(8000000/4000000.0)));
  3092  0D93  3042               	movlw	66
  3093  0D94  1283               	bcf	3,5	;RP0=0, select bank0
  3094  0D95  1303               	bcf	3,6	;RP1=0, select bank0
  3095  0D96  00C3               	movwf	??_menu
  3096  0D97                     u1187:	
  3097  0D97  0BC3               	decfsz	??_menu,f
  3098  0D98  2D97               	goto	u1187
  3099  0D99  0000               	nop
  3100                           
  3101                           ;TCC_1.c: 180: switch(posicao){
  3102  0D9A  2E59               	goto	l1822
  3103  0D9B                     l1782:	
  3104                           ;TCC_1.c: 181: case 0:
  3105                           
  3106                           
  3107                           ;TCC_1.c: 182: printf("     7400");
  3108  0D9B  306F               	movlw	low (STR_5| (0+32768))
  3109  0D9C  1283               	bcf	3,5	;RP0=0, select bank0
  3110  0D9D  1303               	bcf	3,6	;RP1=0, select bank0
  3111  0D9E  00B7               	movwf	?_printf
  3112  0D9F  3086               	movlw	high (STR_5| (0+32768))
  3113  0DA0  00B8               	movwf	?_printf+1
  3114  0DA1  120A  118A  2395   	fcall	_printf
  3115                           
  3116                           ;TCC_1.c: 183: break;
  3117  0DA4  0008               	return
  3118  0DA5                     l1784:	
  3119                           ;TCC_1.c: 185: case 1:
  3120                           
  3121                           
  3122                           ;TCC_1.c: 186: printf("     7402");
  3123  0DA5  3079               	movlw	low (STR_6| (0+32768))
  3124  0DA6  1283               	bcf	3,5	;RP0=0, select bank0
  3125  0DA7  1303               	bcf	3,6	;RP1=0, select bank0
  3126  0DA8  00B7               	movwf	?_printf
  3127  0DA9  3086               	movlw	high (STR_6| (0+32768))
  3128  0DAA  00B8               	movwf	?_printf+1
  3129  0DAB  120A  118A  2395   	fcall	_printf
  3130                           
  3131                           ;TCC_1.c: 187: break;
  3132  0DAE  0008               	return
  3133  0DAF                     l1786:	
  3134                           ;TCC_1.c: 189: case 2:
  3135                           
  3136                           
  3137                           ;TCC_1.c: 190: printf("     7404");
  3138  0DAF  308D               	movlw	low (STR_7| (0+32768))
  3139  0DB0  1283               	bcf	3,5	;RP0=0, select bank0
  3140  0DB1  1303               	bcf	3,6	;RP1=0, select bank0
  3141  0DB2  00B7               	movwf	?_printf
  3142  0DB3  3086               	movlw	high (STR_7| (0+32768))
  3143  0DB4  00B8               	movwf	?_printf+1
  3144  0DB5  120A  118A  2395   	fcall	_printf
  3145                           
  3146                           ;TCC_1.c: 191: break;
  3147  0DB8  0008               	return
  3148  0DB9                     l1788:	
  3149                           ;TCC_1.c: 193: case 3:
  3150                           
  3151                           
  3152                           ;TCC_1.c: 194: printf("     7408");
  3153  0DB9  30B5               	movlw	low (STR_8| (0+32768))
  3154  0DBA  1283               	bcf	3,5	;RP0=0, select bank0
  3155  0DBB  1303               	bcf	3,6	;RP1=0, select bank0
  3156  0DBC  00B7               	movwf	?_printf
  3157  0DBD  3086               	movlw	high (STR_8| (0+32768))
  3158  0DBE  00B8               	movwf	?_printf+1
  3159  0DBF  120A  118A  2395   	fcall	_printf
  3160                           
  3161                           ;TCC_1.c: 195: break;
  3162  0DC2  0008               	return
  3163  0DC3                     l1790:	
  3164                           ;TCC_1.c: 197: case 4:
  3165                           
  3166                           
  3167                           ;TCC_1.c: 198: printf("     7432");
  3168  0DC3  3083               	movlw	low (STR_9| (0+32768))
  3169  0DC4  1283               	bcf	3,5	;RP0=0, select bank0
  3170  0DC5  1303               	bcf	3,6	;RP1=0, select bank0
  3171  0DC6  00B7               	movwf	?_printf
  3172  0DC7  3086               	movlw	high (STR_9| (0+32768))
  3173  0DC8  00B8               	movwf	?_printf+1
  3174  0DC9  120A  118A  2395   	fcall	_printf
  3175                           
  3176                           ;TCC_1.c: 199: break;
  3177  0DCC  0008               	return
  3178  0DCD                     l1792:	
  3179                           ;TCC_1.c: 201: case 5:
  3180                           
  3181                           
  3182                           ;TCC_1.c: 202: printf("     7447");
  3183  0DCD  30AB               	movlw	low (STR_10| (0+32768))
  3184  0DCE  1283               	bcf	3,5	;RP0=0, select bank0
  3185  0DCF  1303               	bcf	3,6	;RP1=0, select bank0
  3186  0DD0  00B7               	movwf	?_printf
  3187  0DD1  3086               	movlw	high (STR_10| (0+32768))
  3188  0DD2  00B8               	movwf	?_printf+1
  3189  0DD3  120A  118A  2395   	fcall	_printf
  3190                           
  3191                           ;TCC_1.c: 203: break;
  3192  0DD6  0008               	return
  3193  0DD7                     l1794:	
  3194                           ;TCC_1.c: 205: case 6:
  3195                           
  3196                           
  3197                           ;TCC_1.c: 206: printf("     4027*");
  3198  0DD7  3043               	movlw	low (STR_11| (0+32768))
  3199  0DD8  1283               	bcf	3,5	;RP0=0, select bank0
  3200  0DD9  1303               	bcf	3,6	;RP1=0, select bank0
  3201  0DDA  00B7               	movwf	?_printf
  3202  0DDB  3086               	movlw	high (STR_11| (0+32768))
  3203  0DDC  00B8               	movwf	?_printf+1
  3204  0DDD  120A  118A  2395   	fcall	_printf
  3205                           
  3206                           ;TCC_1.c: 207: break;
  3207  0DE0  0008               	return
  3208  0DE1                     l1796:	
  3209                           ;TCC_1.c: 209: case 7:
  3210                           
  3211                           
  3212                           ;TCC_1.c: 210: printf("     7474");
  3213  0DE1  3097               	movlw	low (STR_12| (0+32768))
  3214  0DE2  1283               	bcf	3,5	;RP0=0, select bank0
  3215  0DE3  1303               	bcf	3,6	;RP1=0, select bank0
  3216  0DE4  00B7               	movwf	?_printf
  3217  0DE5  3086               	movlw	high (STR_12| (0+32768))
  3218  0DE6  00B8               	movwf	?_printf+1
  3219  0DE7  120A  118A  2395   	fcall	_printf
  3220                           
  3221                           ;TCC_1.c: 211: break;
  3222  0DEA  0008               	return
  3223  0DEB                     l1798:	
  3224                           ;TCC_1.c: 213: case 8:
  3225                           
  3226                           
  3227                           ;TCC_1.c: 214: printf("     7486");
  3228  0DEB  30A1               	movlw	low (STR_13| (0+32768))
  3229  0DEC  1283               	bcf	3,5	;RP0=0, select bank0
  3230  0DED  1303               	bcf	3,6	;RP1=0, select bank0
  3231  0DEE  00B7               	movwf	?_printf
  3232  0DEF  3086               	movlw	high (STR_13| (0+32768))
  3233  0DF0  00B8               	movwf	?_printf+1
  3234  0DF1  120A  118A  2395   	fcall	_printf
  3235                           
  3236                           ;TCC_1.c: 215: break;
  3237  0DF4  0008               	return
  3238  0DF5                     l1800:	
  3239                           ;TCC_1.c: 217: case 9:
  3240                           
  3241                           
  3242                           ;TCC_1.c: 218: printf("     74165");
  3243  0DF5  3064               	movlw	low (STR_14| (0+32768))
  3244  0DF6  1283               	bcf	3,5	;RP0=0, select bank0
  3245  0DF7  1303               	bcf	3,6	;RP1=0, select bank0
  3246  0DF8  00B7               	movwf	?_printf
  3247  0DF9  3086               	movlw	high (STR_14| (0+32768))
  3248  0DFA  00B8               	movwf	?_printf+1
  3249  0DFB  120A  118A  2395   	fcall	_printf
  3250                           
  3251                           ;TCC_1.c: 219: break;
  3252  0DFE  0008               	return
  3253  0DFF                     l1802:	
  3254                           ;TCC_1.c: 221: case 10:
  3255                           
  3256                           
  3257                           ;TCC_1.c: 222: printf("     74191");
  3258  0DFF  304E               	movlw	low (STR_15| (0+32768))
  3259  0E00  1283               	bcf	3,5	;RP0=0, select bank0
  3260  0E01  1303               	bcf	3,6	;RP1=0, select bank0
  3261  0E02  00B7               	movwf	?_printf
  3262  0E03  3086               	movlw	high (STR_15| (0+32768))
  3263  0E04  00B8               	movwf	?_printf+1
  3264  0E05  120A  118A  2395   	fcall	_printf
  3265                           
  3266                           ;TCC_1.c: 223: break;
  3267  0E08  0008               	return
  3268  0E09                     l1804:	
  3269                           ;TCC_1.c: 225: case 11:
  3270                           
  3271                           
  3272                           ;TCC_1.c: 226: printf("     74192");
  3273  0E09  3059               	movlw	low (STR_16| (0+32768))
  3274  0E0A  1283               	bcf	3,5	;RP0=0, select bank0
  3275  0E0B  1303               	bcf	3,6	;RP1=0, select bank0
  3276  0E0C  00B7               	movwf	?_printf
  3277  0E0D  3086               	movlw	high (STR_16| (0+32768))
  3278  0E0E  00B8               	movwf	?_printf+1
  3279  0E0F  120A  118A  2395   	fcall	_printf
  3280                           
  3281                           ;TCC_1.c: 227: break;
  3282  0E12  0008               	return
  3283  0E13                     l1806:	
  3284                           ;TCC_1.c: 229: case 12:
  3285                           
  3286                           
  3287                           ;TCC_1.c: 230: lcd_clear();
  3288  0E13  120A  158A  2168   	fcall	_lcd_clear
      +       120A  158A         
  3289                           
  3290                           ;TCC_1.c: 231: printf("%c  SCID-2013   %c\n",0,0);
  3291  0E18  3043               	movlw	low (STR_4| (0+32768))
  3292  0E19  1283               	bcf	3,5	;RP0=0, select bank0
  3293  0E1A  1303               	bcf	3,6	;RP1=0, select bank0
  3294  0E1B  00B7               	movwf	?_printf
  3295  0E1C  3084               	movlw	high (STR_4| (0+32768))
  3296  0E1D  00B8               	movwf	?_printf+1
  3297  0E1E  3000               	movlw	0
  3298  0E1F  00B9               	movwf	?_printf+2
  3299  0E20  3000               	movlw	0
  3300  0E21  00BA               	movwf	?_printf+3
  3301  0E22  3000               	movlw	0
  3302  0E23  00BB               	movwf	?_printf+4
  3303  0E24  3000               	movlw	0
  3304  0E25  00BC               	movwf	?_printf+5
  3305  0E26  120A  118A  2395   	fcall	_printf
      +       120A  158A         
  3306                           
  3307                           ;TCC_1.c: 232: printf("    Desligar");
  3308  0E2B  3036               	movlw	low (STR_18| (0+32768))
  3309  0E2C  1283               	bcf	3,5	;RP0=0, select bank0
  3310  0E2D  1303               	bcf	3,6	;RP1=0, select bank0
  3311  0E2E  00B7               	movwf	?_printf
  3312  0E2F  3086               	movlw	high (STR_18| (0+32768))
  3313  0E30  00B8               	movwf	?_printf+1
  3314  0E31  120A  118A  2395   	fcall	_printf
  3315                           
  3316                           ;TCC_1.c: 233: break;
  3317  0E34  0008               	return
  3318  0E35                     l1812:	
  3319                           ;TCC_1.c: 235: case 13:
  3320                           
  3321                           
  3322                           ;TCC_1.c: 236: printf(" Selec. portas");
  3323  0E35  3005               	movlw	low (STR_19| (0+32768))
  3324  0E36  1283               	bcf	3,5	;RP0=0, select bank0
  3325  0E37  1303               	bcf	3,6	;RP1=0, select bank0
  3326  0E38  00B7               	movwf	?_printf
  3327  0E39  3085               	movlw	high (STR_19| (0+32768))
  3328  0E3A  00B8               	movwf	?_printf+1
  3329  0E3B  120A  118A  2395   	fcall	_printf
  3330                           
  3331                           ;TCC_1.c: 237: break;
  3332  0E3E  0008               	return
  3333  0E3F                     l1814:	
  3334                           ;TCC_1.c: 239: default:
  3335                           
  3336                           
  3337                           ;TCC_1.c: 240: lcd_clear();
  3338  0E3F  120A  158A  2168   	fcall	_lcd_clear
      +       120A  158A         
  3339                           
  3340                           ;TCC_1.c: 241: printf("ERRO");
  3341  0E44  30C2               	movlw	low ((STR_21+3)| (0+32768))
  3342  0E45  1283               	bcf	3,5	;RP0=0, select bank0
  3343  0E46  1303               	bcf	3,6	;RP1=0, select bank0
  3344  0E47  00B7               	movwf	?_printf
  3345  0E48  3086               	movlw	high ((STR_21+3)| (0+32768))
  3346  0E49  00B8               	movwf	?_printf+1
  3347  0E4A  120A  118A  2395   	fcall	_printf
      +       120A  158A         
  3348                           
  3349                           ;TCC_1.c: 242: printf("   ERRO");
  3350  0E4F  30BF               	movlw	low (STR_21| (0+32768))
  3351  0E50  1283               	bcf	3,5	;RP0=0, select bank0
  3352  0E51  1303               	bcf	3,6	;RP1=0, select bank0
  3353  0E52  00B7               	movwf	?_printf
  3354  0E53  3086               	movlw	high (STR_21| (0+32768))
  3355  0E54  00B8               	movwf	?_printf+1
  3356  0E55  120A  118A  2395   	fcall	_printf
  3357                           
  3358                           ;TCC_1.c: 245: }
  3359                           
  3360                           ;TCC_1.c: 243: break;
  3361  0E58  0008               	return
  3362  0E59                     l1822:	
  3363  0E59  1283               	bcf	3,5	;RP0=0, select bank0
  3364  0E5A  1303               	bcf	3,6	;RP1=0, select bank0
  3365  0E5B  084C               	movf	_posicao,w
  3366                           
  3367                           ; Switch size 1, requested type "space"
  3368                           ; Number of cases is 14, Range of values is 0 to 13
  3369                           ; switch strategies available:
  3370                           ; Name         Instructions Cycles
  3371                           ; simple_byte           43    22 (average)
  3372                           ; direct_byte           50     8 (fixed)
  3373                           ; jumptable            260     6 (fixed)
  3374                           ; rangetable            18     6 (fixed)
  3375                           ; spacedrange           34     9 (fixed)
  3376                           ; locatedrange          14     3 (fixed)
  3377                           ;	Chosen strategy is simple_byte
  3378  0E5C  3A00               	xorlw	0	; case 0
  3379  0E5D  1903               	skipnz
  3380  0E5E  2D9B               	goto	l1782
  3381  0E5F  3A01               	xorlw	1	; case 1
  3382  0E60  1903               	skipnz
  3383  0E61  2DA5               	goto	l1784
  3384  0E62  3A03               	xorlw	3	; case 2
  3385  0E63  1903               	skipnz
  3386  0E64  2DAF               	goto	l1786
  3387  0E65  3A01               	xorlw	1	; case 3
  3388  0E66  1903               	skipnz
  3389  0E67  2DB9               	goto	l1788
  3390  0E68  3A07               	xorlw	7	; case 4
  3391  0E69  1903               	skipnz
  3392  0E6A  2DC3               	goto	l1790
  3393  0E6B  3A01               	xorlw	1	; case 5
  3394  0E6C  1903               	skipnz
  3395  0E6D  2DCD               	goto	l1792
  3396  0E6E  3A03               	xorlw	3	; case 6
  3397  0E6F  1903               	skipnz
  3398  0E70  2DD7               	goto	l1794
  3399  0E71  3A01               	xorlw	1	; case 7
  3400  0E72  1903               	skipnz
  3401  0E73  2DE1               	goto	l1796
  3402  0E74  3A0F               	xorlw	15	; case 8
  3403  0E75  1903               	skipnz
  3404  0E76  2DEB               	goto	l1798
  3405  0E77  3A01               	xorlw	1	; case 9
  3406  0E78  1903               	skipnz
  3407  0E79  2DF5               	goto	l1800
  3408  0E7A  3A03               	xorlw	3	; case 10
  3409  0E7B  1903               	skipnz
  3410  0E7C  2DFF               	goto	l1802
  3411  0E7D  3A01               	xorlw	1	; case 11
  3412  0E7E  1903               	skipnz
  3413  0E7F  2E09               	goto	l1804
  3414  0E80  3A07               	xorlw	7	; case 12
  3415  0E81  1903               	skipnz
  3416  0E82  2E13               	goto	l1806
  3417  0E83  3A01               	xorlw	1	; case 13
  3418  0E84  1903               	skipnz
  3419  0E85  2E35               	goto	l1812
  3420  0E86  2E3F               	goto	l1814
  3421  0E87  0008               	return
  3422  0E88                     __end_of_menu:	
  3423                           
  3424                           	psect	text5
  3425  0395                     __ptext5:	
  3426 ;; *************** function _printf *****************
  3427 ;; Defined at:
  3428 ;;		line 465 in file "C:\Program Files (x86)\Microchip\xc8\v1.20\sources\common\doprnt.c"
  3429 ;; Parameters:    Size  Location     Type
  3430 ;;  f               2   23[BANK0 ] PTR const unsigned char 
  3431 ;;		 -> STR_58(14), STR_57(17), STR_56(19), STR_55(32), 
  3432 ;;		 -> STR_54(35), STR_53(14), STR_52(15), STR_51(14), 
  3433 ;;		 -> STR_50(14), STR_49(13), STR_48(15), STR_47(14), 
  3434 ;;		 -> STR_46(19), STR_45(14), STR_44(15), STR_43(14), 
  3435 ;;		 -> STR_42(14), STR_41(13), STR_40(15), STR_39(14), 
  3436 ;;		 -> STR_38(19), STR_37(14), STR_36(15), STR_35(14), 
  3437 ;;		 -> STR_34(14), STR_33(13), STR_32(15), STR_31(14), 
  3438 ;;		 -> STR_30(19), STR_29(14), STR_28(15), STR_27(14), 
  3439 ;;		 -> STR_26(14), STR_25(13), STR_24(15), STR_23(14), 
  3440 ;;		 -> STR_22(19), STR_21(8), STR_20(5), STR_19(15), 
  3441 ;;		 -> STR_18(13), STR_17(20), STR_16(11), STR_15(11), 
  3442 ;;		 -> STR_14(11), STR_13(10), STR_12(10), STR_11(11), 
  3443 ;;		 -> STR_10(10), STR_9(10), STR_8(10), STR_7(10), 
  3444 ;;		 -> STR_6(10), STR_5(10), STR_4(20), STR_3(18), 
  3445 ;;		 -> STR_2(19), STR_1(14), 
  3446 ;; Auto vars:     Size  Location     Type
  3447 ;;  _val            4    0        struct .
  3448 ;;  c               1   34[BANK0 ] char 
  3449 ;;  ap              1   33[BANK0 ] PTR void [1]
  3450 ;;		 -> ?_printf(2), 
  3451 ;;  flag            1   32[BANK0 ] unsigned char 
  3452 ;;  prec            1    0        char 
  3453 ;; Return value:  Size  Location     Type
  3454 ;;                  2   23[BANK0 ] int 
  3455 ;; Registers used:
  3456 ;;		wreg, fsr0l, fsr0h, fsr1l, fsr1h, fsr1l, fsr1h, status,2, status,0, btemp+1, pclath, cstack
  3457 ;; Tracked objects:
  3458 ;;		On entry : 0/0
  3459 ;;		On exit  : 0/0
  3460 ;;		Unchanged: 0/0
  3461 ;; Data sizes:     COMMON   BANK0   BANK1   BANK3   BANK2
  3462 ;;      Params:         0       6       0       0       0
  3463 ;;      Locals:         0       3       0       0       0
  3464 ;;      Temps:          0       3       0       0       0
  3465 ;;      Totals:         0      12       0       0       0
  3466 ;;Total ram usage:       12 bytes
  3467 ;; Hardware stack levels used:    1
  3468 ;; Hardware stack levels required when called:   11
  3469 ;; This function calls:
  3470 ;;		_putch
  3471 ;; This function is called by:
  3472 ;;		_menu
  3473 ;;		_principal
  3474 ;; This function uses a non-reentrant model
  3475 ;;
  3476                           
  3477                           
  3478                           ;psect for function _printf
  3479  0395                     _printf:	
  3480                           
  3481                           ;doprnt.c: 466: va_list ap;
  3482                           ;doprnt.c: 499: signed char c;
  3483                           ;doprnt.c: 506: signed char prec;
  3484                           ;doprnt.c: 508: unsigned char flag;
  3485                           ;doprnt.c: 527: union {
  3486                           ;doprnt.c: 528: unsigned int _val;
  3487                           ;doprnt.c: 529: struct {
  3488                           ;doprnt.c: 530: const char * _cp;
  3489                           ;doprnt.c: 531: unsigned _len;
  3490                           ;doprnt.c: 532: } _str;
  3491                           ;doprnt.c: 533: } _val;
  3492                           ;doprnt.c: 542: *ap = __va_start();
  3493                           
  3494                           ;incstack = 0
  3495 ;; hardware stack exceeded
  3496                           ; Regs used in _printf: [allreg]
  3497  0395  3039               	movlw	(?_printf+2)& (0+255)
  3498  0396  1283               	bcf	3,5	;RP0=0, select bank0
  3499  0397  1303               	bcf	3,6	;RP1=0, select bank0
  3500  0398  00BD               	movwf	??_printf
  3501  0399  083D               	movf	??_printf,w
  3502  039A  00C1               	movwf	printf@ap
  3503  039B                     l1774:	
  3504                           ;doprnt.c: 1429: {
  3505                           
  3506                           ;doprnt.c: 545: while(c = *f++) {
  3507                           
  3508  039B  1283               	bcf	3,5	;RP0=0, select bank0
  3509  039C  1303               	bcf	3,6	;RP1=0, select bank0
  3510  039D  0838               	movf	printf@f+1,w
  3511  039E  00BE               	movwf	??_printf+1
  3512  039F  0837               	movf	printf@f,w
  3513  03A0  00BD               	movwf	??_printf
  3514  03A1  3001               	movlw	1
  3515  03A2  07B7               	addwf	printf@f,f
  3516  03A3  1803               	skipnc
  3517  03A4  0AB8               	incf	printf@f+1,f
  3518  03A5  083E               	movf	??_printf+1,w
  3519  03A6  00FF               	movwf	127
  3520  03A7  083D               	movf	??_printf,w
  3521  03A8  0084               	movwf	4
  3522  03A9  120A  158A  2000   	fcall	stringtab
      +       120A  118A         
  3523  03AE  00BF               	movwf	??_printf+2
  3524  03AF  083F               	movf	??_printf+2,w
  3525  03B0  00C2               	movwf	printf@c
  3526  03B1  08C2               	movf	printf@c,f
  3527  03B2  1903               	btfsc	3,2
  3528  03B3  0008               	return
  3529                           
  3530                           ;doprnt.c: 547: if(c != '%')
  3531  03B4  0842               	movf	printf@c,w
  3532  03B5  3A25               	xorlw	37
  3533  03B6  1903               	skipnz
  3534  03B7  2BBF               	goto	l1762
  3535                           
  3536                           ;doprnt.c: 549: {
  3537                           ;doprnt.c: 550: (putch(c) );
  3538  03B8  0842               	movf	printf@c,w
  3539  03B9  120A  158A  210C   	fcall	_putch
      +       120A  118A         
  3540                           
  3541                           ;doprnt.c: 551: continue;
  3542  03BE  2B9B               	goto	l1774
  3543  03BF                     l1762:	
  3544                           
  3545                           ;doprnt.c: 552: }
  3546                           ;doprnt.c: 557: flag = 0;
  3547  03BF  1283               	bcf	3,5	;RP0=0, select bank0
  3548  03C0  1303               	bcf	3,6	;RP1=0, select bank0
  3549  03C1  01C0               	clrf	printf@flag
  3550                           
  3551                           ;doprnt.c: 644: switch(c = *f++) {
  3552  03C2  2BD5               	goto	l1772
  3553  03C3                     l1764:	
  3554                           ;doprnt.c: 793: case 'c':
  3555                           
  3556                           ;doprnt.c: 647: goto alldone;
  3557                           
  3558                           ;doprnt.c: 646: case 0:
  3559                           
  3560                           
  3561                           ;doprnt.c: 808: c = (*(int *)__va_arg((*(int **)ap), (int)0));
  3562  03C3  0841               	movf	printf@ap,w
  3563  03C4  0084               	movwf	4
  3564  03C5  1383               	bcf	3,7	;select IRP bank0
  3565  03C6  0800               	movf	0,w
  3566  03C7  00BD               	movwf	??_printf
  3567  03C8  083D               	movf	??_printf,w
  3568  03C9  00C2               	movwf	printf@c
  3569  03CA  3002               	movlw	2
  3570  03CB  00BD               	movwf	??_printf
  3571  03CC  083D               	movf	??_printf,w
  3572  03CD  07C1               	addwf	printf@ap,f
  3573  03CE                     l1768:	
  3574                           ;doprnt.c: 811: default:
  3575                           
  3576                           
  3577                           ;doprnt.c: 818: (putch(c) );
  3578  03CE  0842               	movf	printf@c,w
  3579  03CF  120A  158A  210C   	fcall	_putch
      +       120A  118A         
  3580                           
  3581                           ;doprnt.c: 831: }
  3582                           
  3583                           ;doprnt.c: 819: continue;
  3584  03D4  2B9B               	goto	l1774
  3585  03D5                     l1772:	
  3586  03D5  1283               	bcf	3,5	;RP0=0, select bank0
  3587  03D6  1303               	bcf	3,6	;RP1=0, select bank0
  3588  03D7  0838               	movf	printf@f+1,w
  3589  03D8  00BE               	movwf	??_printf+1
  3590  03D9  0837               	movf	printf@f,w
  3591  03DA  00BD               	movwf	??_printf
  3592  03DB  3001               	movlw	1
  3593  03DC  07B7               	addwf	printf@f,f
  3594  03DD  1803               	skipnc
  3595  03DE  0AB8               	incf	printf@f+1,f
  3596  03DF  083E               	movf	??_printf+1,w
  3597  03E0  00FF               	movwf	127
  3598  03E1  083D               	movf	??_printf,w
  3599  03E2  0084               	movwf	4
  3600  03E3  120A  158A  2000   	fcall	stringtab
      +       120A  118A         
  3601  03E8  00C2               	movwf	printf@c
  3602                           
  3603                           ; Switch size 1, requested type "space"
  3604                           ; Number of cases is 2, Range of values is 0 to 99
  3605                           ; switch strategies available:
  3606                           ; Name         Instructions Cycles
  3607                           ; simple_byte            7     4 (average)
  3608                           ; jumptable            260     6 (fixed)
  3609                           ; rangetable           104     6 (fixed)
  3610                           ; spacedrange          206     9 (fixed)
  3611                           ; locatedrange         100     3 (fixed)
  3612                           ;	Chosen strategy is simple_byte
  3613  03E9  3A00               	xorlw	0	; case 0
  3614  03EA  1903               	skipnz
  3615  03EB  2BF1               	goto	l325
  3616  03EC  3A63               	xorlw	99	; case 99
  3617  03ED  1903               	skipnz
  3618  03EE  2BC3               	goto	l1764
  3619  03EF  2BCE               	goto	l1768
  3620  03F0  2B9B               	goto	l1774
  3621  03F1                     l325:	
  3622                           ;doprnt.c: 1547: return 0;
  3623                           ;	Return value of _printf is never used
  3624                           
  3625                           ;doprnt.c: 1476: }
  3626                           ;doprnt.c: 1540: }
  3627                           ;doprnt.c: 1542: alldone:
  3628                           
  3629  03F1  0008               	return
  3630  03F2                     __end_of_printf:	
  3631                           
  3632                           	psect	text6
  3633  090C                     __ptext6:	
  3634 ;; *************** function _putch *****************
  3635 ;; Defined at:
  3636 ;;		line 168 in file "../LCD_ModSauer.c"
  3637 ;; Parameters:    Size  Location     Type
  3638 ;;  c               1    wreg     unsigned char 
  3639 ;; Auto vars:     Size  Location     Type
  3640 ;;  c               1   22[BANK0 ] unsigned char 
  3641 ;; Return value:  Size  Location     Type
  3642 ;;		None               void
  3643 ;; Registers used:
  3644 ;;		wreg, fsr0l, fsr0h, status,2, status,0, pclath, cstack
  3645 ;; Tracked objects:
  3646 ;;		On entry : 0/0
  3647 ;;		On exit  : 0/0
  3648 ;;		Unchanged: 0/0
  3649 ;; Data sizes:     COMMON   BANK0   BANK1   BANK3   BANK2
  3650 ;;      Params:         0       0       0       0       0
  3651 ;;      Locals:         0       1       0       0       0
  3652 ;;      Temps:          0       0       0       0       0
  3653 ;;      Totals:         0       1       0       0       0
  3654 ;;Total ram usage:        1 bytes
  3655 ;; Hardware stack levels used:    1
  3656 ;; Hardware stack levels required when called:   10
  3657 ;; This function calls:
  3658 ;;		_lcd_putc
  3659 ;; This function is called by:
  3660 ;;		_printf
  3661 ;; This function uses a non-reentrant model
  3662 ;;
  3663                           
  3664                           
  3665                           ;psect for function _putch
  3666  090C                     _putch:	
  3667                           
  3668                           ;incstack = 0
  3669 ;; hardware stack exceeded
  3670                           ; Regs used in _putch: [wreg-fsr0h+status,2+status,0+pclath+cstack]
  3671                           ;putch@c stored from wreg
  3672  090C  1283               	bcf	3,5	;RP0=0, select bank0
  3673  090D  1303               	bcf	3,6	;RP1=0, select bank0
  3674  090E  00B6               	movwf	putch@c
  3675                           
  3676                           ;LCD_ModSauer.c: 169: lcd_putc(c);
  3677  090F  0836               	movf	putch@c,w
  3678  0910  120A  158A  21C3   	fcall	_lcd_putc
  3679  0913  0008               	return
  3680  0914                     __end_of_putch:	
  3681                           
  3682                           	psect	text7
  3683  09C3                     __ptext7:	
  3684 ;; *************** function _lcd_putc *****************
  3685 ;; Defined at:
  3686 ;;		line 76 in file "../LCD_ModSauer.c"
  3687 ;; Parameters:    Size  Location     Type
  3688 ;;  c               1    wreg     unsigned char 
  3689 ;; Auto vars:     Size  Location     Type
  3690 ;;  c               1   21[BANK0 ] unsigned char 
  3691 ;; Return value:  Size  Location     Type
  3692 ;;		None               void
  3693 ;; Registers used:
  3694 ;;		wreg, fsr0l, fsr0h, status,2, status,0, pclath, cstack
  3695 ;; Tracked objects:
  3696 ;;		On entry : 0/0
  3697 ;;		On exit  : 0/0
  3698 ;;		Unchanged: 0/0
  3699 ;; Data sizes:     COMMON   BANK0   BANK1   BANK3   BANK2
  3700 ;;      Params:         0       0       0       0       0
  3701 ;;      Locals:         0       1       0       0       0
  3702 ;;      Temps:          0       0       0       0       0
  3703 ;;      Totals:         0       1       0       0       0
  3704 ;;Total ram usage:        1 bytes
  3705 ;; Hardware stack levels used:    1
  3706 ;; Hardware stack levels required when called:    9
  3707 ;; This function calls:
  3708 ;;		_lcd_clear
  3709 ;;		_lcd_write
  3710 ;;		_lcd_goto
  3711 ;; This function is called by:
  3712 ;;		_putch
  3713 ;; This function uses a non-reentrant model
  3714 ;;
  3715                           
  3716                           
  3717                           ;psect for function _lcd_putc
  3718  09C3                     _lcd_putc:	
  3719                           
  3720                           ;incstack = 0
  3721 ;; hardware stack exceeded
  3722                           ; Regs used in _lcd_putc: [wreg-fsr0h+status,2+status,0+pclath+cstack]
  3723                           ;lcd_putc@c stored from wreg
  3724  09C3  1283               	bcf	3,5	;RP0=0, select bank0
  3725  09C4  1303               	bcf	3,6	;RP1=0, select bank0
  3726  09C5  00B5               	movwf	lcd_putc@c
  3727                           
  3728                           ;LCD_ModSauer.c: 77: switch (c) {
  3729  09C6  29DC               	goto	l2138
  3730  09C7                     l2128:	
  3731                           ;LCD_ModSauer.c: 78: case '\f' :
  3732                           
  3733                           
  3734                           ;LCD_ModSauer.c: 80: lcd_clear();
  3735  09C7  120A  158A  2168   	fcall	_lcd_clear
  3736                           
  3737                           ;LCD_ModSauer.c: 81: break;
  3738  09CA  0008               	return
  3739  09CB                     l2130:	
  3740                           ;LCD_ModSauer.c: 82: case '\n' :
  3741                           
  3742                           
  3743                           ;LCD_ModSauer.c: 83: lcd_goto(0x40);
  3744  09CB  3040               	movlw	64
  3745  09CC  120A  118A  23F2   	fcall	_lcd_goto
  3746                           
  3747                           ;LCD_ModSauer.c: 84: break;
  3748  09CF  0008               	return
  3749  09D0                     l295:	
  3750                           ;LCD_ModSauer.c: 85: case '\r' :
  3751                           
  3752                           
  3753                           ;LCD_ModSauer.c: 86: RA4 = 0;
  3754  09D0  1205               	bcf	5,4	;volatile
  3755                           
  3756                           ;LCD_ModSauer.c: 87: lcd_write(0x80);
  3757  09D1  3080               	movlw	128
  3758  09D2  120A  158A  2216   	fcall	_lcd_write
  3759                           
  3760                           ;LCD_ModSauer.c: 88: break;
  3761  09D5  0008               	return
  3762  09D6                     l296:	
  3763                           ;LCD_ModSauer.c: 89: default :
  3764                           
  3765                           
  3766                           ;LCD_ModSauer.c: 90: RA4 = 1;
  3767  09D6  1605               	bsf	5,4	;volatile
  3768                           
  3769                           ;LCD_ModSauer.c: 91: lcd_write( c );
  3770  09D7  0835               	movf	lcd_putc@c,w
  3771  09D8  120A  158A  2216   	fcall	_lcd_write
  3772                           
  3773                           ;LCD_ModSauer.c: 93: }
  3774                           
  3775                           ;LCD_ModSauer.c: 92: break;
  3776  09DB  0008               	return
  3777  09DC                     l2138:	
  3778  09DC  1283               	bcf	3,5	;RP0=0, select bank0
  3779  09DD  1303               	bcf	3,6	;RP1=0, select bank0
  3780  09DE  0835               	movf	lcd_putc@c,w
  3781                           
  3782                           ; Switch size 1, requested type "space"
  3783                           ; Number of cases is 3, Range of values is 10 to 13
  3784                           ; switch strategies available:
  3785                           ; Name         Instructions Cycles
  3786                           ; simple_byte           10     6 (average)
  3787                           ; direct_byte           23    11 (fixed)
  3788                           ; jumptable            263     9 (fixed)
  3789                           ;	Chosen strategy is simple_byte
  3790  09DF  3A0A               	xorlw	10	; case 10
  3791  09E0  1903               	skipnz
  3792  09E1  29CB               	goto	l2130
  3793  09E2  3A06               	xorlw	6	; case 12
  3794  09E3  1903               	skipnz
  3795  09E4  29C7               	goto	l2128
  3796  09E5  3A01               	xorlw	1	; case 13
  3797  09E6  1903               	skipnz
  3798  09E7  29D0               	goto	l295
  3799  09E8  29D6               	goto	l296
  3800  09E9  0008               	return
  3801  09EA                     __end_of_lcd_putc:	
  3802                           
  3803                           	psect	text8
  3804  03F2                     __ptext8:	
  3805 ;; *************** function _lcd_goto *****************
  3806 ;; Defined at:
  3807 ;;		line 103 in file "../LCD_ModSauer.c"
  3808 ;; Parameters:    Size  Location     Type
  3809 ;;  pos             1    wreg     unsigned char 
  3810 ;; Auto vars:     Size  Location     Type
  3811 ;;  pos             1   19[BANK0 ] unsigned char 
  3812 ;; Return value:  Size  Location     Type
  3813 ;;		None               void
  3814 ;; Registers used:
  3815 ;;		wreg, status,2, status,0, pclath, cstack
  3816 ;; Tracked objects:
  3817 ;;		On entry : 0/0
  3818 ;;		On exit  : 0/0
  3819 ;;		Unchanged: 0/0
  3820 ;; Data sizes:     COMMON   BANK0   BANK1   BANK3   BANK2
  3821 ;;      Params:         0       0       0       0       0
  3822 ;;      Locals:         0       1       0       0       0
  3823 ;;      Temps:          0       0       0       0       0
  3824 ;;      Totals:         0       1       0       0       0
  3825 ;;Total ram usage:        1 bytes
  3826 ;; Hardware stack levels used:    1
  3827 ;; Hardware stack levels required when called:    8
  3828 ;; This function calls:
  3829 ;;		_lcd_write
  3830 ;; This function is called by:
  3831 ;;		_lcd_putc
  3832 ;; This function uses a non-reentrant model
  3833 ;;
  3834                           
  3835                           
  3836                           ;psect for function _lcd_goto
  3837  03F2                     _lcd_goto:	
  3838                           
  3839                           ;incstack = 0
  3840 ;; hardware stack exceeded
  3841                           ; Regs used in _lcd_goto: [wreg+status,2+status,0+pclath+cstack]
  3842                           ;lcd_goto@pos stored from wreg
  3843  03F2  1283               	bcf	3,5	;RP0=0, select bank0
  3844  03F3  1303               	bcf	3,6	;RP1=0, select bank0
  3845  03F4  00B3               	movwf	lcd_goto@pos
  3846                           
  3847                           ;LCD_ModSauer.c: 104: RA4 = 0;
  3848  03F5  1205               	bcf	5,4	;volatile
  3849                           
  3850                           ;LCD_ModSauer.c: 105: lcd_write(0x80+pos);
  3851  03F6  0833               	movf	lcd_goto@pos,w
  3852  03F7  3E80               	addlw	128
  3853  03F8  120A  158A  2216   	fcall	_lcd_write
  3854  03FB  0008               	return
  3855  03FC                     __end_of_lcd_goto:	
  3856                           
  3857                           	psect	text9
  3858  0968                     __ptext9:	
  3859 ;; *************** function _lcd_clear *****************
  3860 ;; Defined at:
  3861 ;;		line 56 in file "../LCD_ModSauer.c"
  3862 ;; Parameters:    Size  Location     Type
  3863 ;;		None
  3864 ;; Auto vars:     Size  Location     Type
  3865 ;;		None
  3866 ;; Return value:  Size  Location     Type
  3867 ;;		None               void
  3868 ;; Registers used:
  3869 ;;		wreg, status,2, status,0, pclath, cstack
  3870 ;; Tracked objects:
  3871 ;;		On entry : 0/0
  3872 ;;		On exit  : 0/0
  3873 ;;		Unchanged: 0/0
  3874 ;; Data sizes:     COMMON   BANK0   BANK1   BANK3   BANK2
  3875 ;;      Params:         0       0       0       0       0
  3876 ;;      Locals:         0       0       0       0       0
  3877 ;;      Temps:          0       2       0       0       0
  3878 ;;      Totals:         0       2       0       0       0
  3879 ;;Total ram usage:        2 bytes
  3880 ;; Hardware stack levels used:    1
  3881 ;; Hardware stack levels required when called:    8
  3882 ;; This function calls:
  3883 ;;		_lcd_write
  3884 ;; This function is called by:
  3885 ;;		_menu
  3886 ;;		_principal
  3887 ;;		_lcd_putc
  3888 ;;		_lcd_init
  3889 ;; This function uses a non-reentrant model
  3890 ;;
  3891                           
  3892                           
  3893                           ;psect for function _lcd_clear
  3894  0968                     _lcd_clear:	
  3895                           
  3896                           ;LCD_ModSauer.c: 57: RA4 = 0;
  3897                           
  3898                           ;incstack = 0
  3899 ;; hardware stack exceeded
  3900                           ; Regs used in _lcd_clear: [wreg+status,2+status,0+pclath+cstack]
  3901  0968  1283               	bcf	3,5	;RP0=0, select bank0
  3902  0969  1303               	bcf	3,6	;RP1=0, select bank0
  3903  096A  1205               	bcf	5,4	;volatile
  3904                           
  3905                           ;LCD_ModSauer.c: 58: _delay((unsigned long)((40)*(8000000/4000000.0)));
  3906  096B  301A               	movlw	26
  3907  096C  00B3               	movwf	??_lcd_clear
  3908  096D                     u1197:	
  3909  096D  0BB3               	decfsz	??_lcd_clear,f
  3910  096E  296D               	goto	u1197
  3911  096F  0000               	nop
  3912                           
  3913                           ;LCD_ModSauer.c: 59: lcd_write(0x1);
  3914  0970  3001               	movlw	1
  3915  0971  120A  158A  2216   	fcall	_lcd_write
      +       120A  158A         
  3916                           
  3917                           ;LCD_ModSauer.c: 60: _delay((unsigned long)((2)*(8000000/4000.0)));
  3918  0976  3006               	movlw	6
  3919  0977  1283               	bcf	3,5	;RP0=0, select bank0
  3920  0978  1303               	bcf	3,6	;RP1=0, select bank0
  3921  0979  00B4               	movwf	??_lcd_clear+1
  3922  097A  3030               	movlw	48
  3923  097B  00B3               	movwf	??_lcd_clear
  3924  097C                     u1207:	
  3925  097C  0BB3               	decfsz	??_lcd_clear,f
  3926  097D  297C               	goto	u1207
  3927  097E  0BB4               	decfsz	??_lcd_clear+1,f
  3928  097F  297C               	goto	u1207
  3929  0980  0000               	nop
  3930  0981  0008               	return
  3931  0982                     __end_of_lcd_clear:	
  3932                           
  3933                           	psect	text10
  3934  0A16                     __ptext10:	
  3935 ;; *************** function _lcd_write *****************
  3936 ;; Defined at:
  3937 ;;		line 39 in file "../LCD_ModSauer.c"
  3938 ;; Parameters:    Size  Location     Type
  3939 ;;  c               1    wreg     unsigned char 
  3940 ;; Auto vars:     Size  Location     Type
  3941 ;;  c               1   18[BANK0 ] unsigned char 
  3942 ;; Return value:  Size  Location     Type
  3943 ;;		None               void
  3944 ;; Registers used:
  3945 ;;		wreg, status,2, status,0
  3946 ;; Tracked objects:
  3947 ;;		On entry : 0/0
  3948 ;;		On exit  : 0/0
  3949 ;;		Unchanged: 0/0
  3950 ;; Data sizes:     COMMON   BANK0   BANK1   BANK3   BANK2
  3951 ;;      Params:         0       0       0       0       0
  3952 ;;      Locals:         0       1       0       0       0
  3953 ;;      Temps:          0       2       0       0       0
  3954 ;;      Totals:         0       3       0       0       0
  3955 ;;Total ram usage:        3 bytes
  3956 ;; Hardware stack levels used:    1
  3957 ;; Hardware stack levels required when called:    7
  3958 ;; This function calls:
  3959 ;;		Nothing
  3960 ;; This function is called by:
  3961 ;;		_lcd_clear
  3962 ;;		_lcd_putc
  3963 ;;		_lcd_goto
  3964 ;;		_lcd_init
  3965 ;;		_lcd_puts
  3966 ;; This function uses a non-reentrant model
  3967 ;;
  3968                           
  3969                           
  3970                           ;psect for function _lcd_write
  3971  0A16                     _lcd_write:	
  3972                           
  3973                           ;incstack = 0
  3974 ;; hardware stack exceeded
  3975                           ; Regs used in _lcd_write: [wreg+status,2+status,0]
  3976                           ;lcd_write@c stored from wreg
  3977  0A16  1283               	bcf	3,5	;RP0=0, select bank0
  3978  0A17  1303               	bcf	3,6	;RP1=0, select bank0
  3979  0A18  00B2               	movwf	lcd_write@c
  3980                           
  3981                           ;LCD_ModSauer.c: 40: _delay((unsigned long)((40)*(8000000/4000000.0)));
  3982  0A19  301A               	movlw	26
  3983  0A1A  00B0               	movwf	??_lcd_write
  3984  0A1B                     u1217:	
  3985  0A1B  0BB0               	decfsz	??_lcd_write,f
  3986  0A1C  2A1B               	goto	u1217
  3987  0A1D  0000               	nop
  3988                           
  3989                           ;LCD_ModSauer.c: 41: PORTA &= 0xF0;
  3990  0A1E  30F0               	movlw	240
  3991  0A1F  1283               	bcf	3,5	;RP0=0, select bank0
  3992  0A20  1303               	bcf	3,6	;RP1=0, select bank0
  3993  0A21  00B0               	movwf	??_lcd_write
  3994  0A22  0830               	movf	??_lcd_write,w
  3995  0A23  0585               	andwf	5,f	;volatile
  3996                           
  3997                           ;LCD_ModSauer.c: 42: PORTA |= ( ( c >> 4 ) & 0x0F );
  3998  0A24  0832               	movf	lcd_write@c,w
  3999  0A25  00B0               	movwf	??_lcd_write
  4000  0A26  3004               	movlw	4
  4001  0A27                     u635:	
  4002  0A27  1003               	clrc
  4003  0A28  0CB0               	rrf	??_lcd_write,f
  4004  0A29  3EFF               	addlw	-1
  4005  0A2A  1D03               	skipz
  4006  0A2B  2A27               	goto	u635
  4007  0A2C  0830               	movf	??_lcd_write,w
  4008  0A2D  390F               	andlw	15
  4009  0A2E  00B1               	movwf	??_lcd_write+1
  4010  0A2F  0831               	movf	??_lcd_write+1,w
  4011  0A30  0485               	iorwf	5,f	;volatile
  4012                           
  4013                           ;LCD_ModSauer.c: 43: ((RA5 = 1),(RA5=0));
  4014  0A31  1685               	bsf	5,5	;volatile
  4015  0A32  1285               	bcf	5,5	;volatile
  4016                           
  4017                           ;LCD_ModSauer.c: 44: PORTA &=0xF0;
  4018  0A33  30F0               	movlw	240
  4019  0A34  00B0               	movwf	??_lcd_write
  4020  0A35  0830               	movf	??_lcd_write,w
  4021  0A36  0585               	andwf	5,f	;volatile
  4022                           
  4023                           ;LCD_ModSauer.c: 45: PORTA |= ( c & 0x0F );
  4024  0A37  0832               	movf	lcd_write@c,w
  4025  0A38  390F               	andlw	15
  4026  0A39  00B0               	movwf	??_lcd_write
  4027  0A3A  0830               	movf	??_lcd_write,w
  4028  0A3B  0485               	iorwf	5,f	;volatile
  4029                           
  4030                           ;LCD_ModSauer.c: 46: ((RA5 = 1),(RA5=0));
  4031  0A3C  1685               	bsf	5,5	;volatile
  4032  0A3D  1285               	bcf	5,5	;volatile
  4033                           
  4034                           ;LCD_ModSauer.c: 47: _delay((unsigned long)((40)*(8000000/4000000.0)));
  4035  0A3E  301A               	movlw	26
  4036  0A3F  00B0               	movwf	??_lcd_write
  4037  0A40                     u1227:	
  4038  0A40  0BB0               	decfsz	??_lcd_write,f
  4039  0A41  2A40               	goto	u1227
  4040  0A42  0000               	nop
  4041  0A43  0008               	return
  4042  0A44                     __end_of_lcd_write:	
  4043                           
  4044                           	psect	text11
  4045  094F                     __ptext11:	
  4046 ;; *************** function _spi_read *****************
  4047 ;; Defined at:
  4048 ;;		line 65 in file "TCC_1.c"
  4049 ;; Parameters:    Size  Location     Type
  4050 ;;  dado            1    wreg     unsigned char 
  4051 ;; Auto vars:     Size  Location     Type
  4052 ;;  dado            1   17[BANK0 ] unsigned char 
  4053 ;;  rec             1   18[BANK0 ] unsigned char 
  4054 ;; Return value:  Size  Location     Type
  4055 ;;                  1    wreg      unsigned char 
  4056 ;; Registers used:
  4057 ;;		wreg
  4058 ;; Tracked objects:
  4059 ;;		On entry : 0/0
  4060 ;;		On exit  : 0/0
  4061 ;;		Unchanged: 0/0
  4062 ;; Data sizes:     COMMON   BANK0   BANK1   BANK3   BANK2
  4063 ;;      Params:         0       0       0       0       0
  4064 ;;      Locals:         0       2       0       0       0
  4065 ;;      Temps:          0       1       0       0       0
  4066 ;;      Totals:         0       3       0       0       0
  4067 ;;Total ram usage:        3 bytes
  4068 ;; Hardware stack levels used:    1
  4069 ;; Hardware stack levels required when called:    7
  4070 ;; This function calls:
  4071 ;;		Nothing
  4072 ;; This function is called by:
  4073 ;;		_principal
  4074 ;; This function uses a non-reentrant model
  4075 ;;
  4076                           
  4077                           
  4078                           ;psect for function _spi_read
  4079  094F                     _spi_read:	
  4080                           
  4081                           ;incstack = 0
  4082 ;; hardware stack exceeded
  4083                           ; Regs used in _spi_read: [wreg]
  4084                           ;spi_read@dado stored from wreg
  4085  094F  1283               	bcf	3,5	;RP0=0, select bank0
  4086  0950  1303               	bcf	3,6	;RP1=0, select bank0
  4087  0951  00B1               	movwf	spi_read@dado
  4088                           
  4089                           ;TCC_1.c: 66: unsigned char rec=0xFF;
  4090  0952  30FF               	movlw	255
  4091  0953  00B0               	movwf	??_spi_read
  4092  0954  0830               	movf	??_spi_read,w
  4093  0955  00B2               	movwf	spi_read@rec
  4094                           
  4095                           ;TCC_1.c: 67: SSPEN=1;
  4096  0956  1694               	bsf	20,5	;volatile
  4097                           
  4098                           ;TCC_1.c: 68: RC6=0;
  4099  0957  1307               	bcf	7,6	;volatile
  4100                           
  4101                           ;TCC_1.c: 69: SSPBUF=dado;
  4102  0958  0831               	movf	spi_read@dado,w
  4103  0959  0093               	movwf	19	;volatile
  4104  095A                     l116:	
  4105                           ;TCC_1.c: 70: while(!BF);
  4106                           
  4107  095A  1683               	bsf	3,5	;RP0=1, select bank1
  4108  095B  1303               	bcf	3,6	;RP1=0, select bank1
  4109  095C  1C14               	btfss	20,0	;volatile
  4110  095D  295A               	goto	l116
  4111                           
  4112                           ;TCC_1.c: 71: rec=SSPBUF;
  4113  095E  1283               	bcf	3,5	;RP0=0, select bank0
  4114  095F  1303               	bcf	3,6	;RP1=0, select bank0
  4115  0960  0813               	movf	19,w	;volatile
  4116  0961  00B0               	movwf	??_spi_read
  4117  0962  0830               	movf	??_spi_read,w
  4118  0963  00B2               	movwf	spi_read@rec
  4119                           
  4120                           ;TCC_1.c: 72: RC6=1;
  4121  0964  1707               	bsf	7,6	;volatile
  4122                           
  4123                           ;TCC_1.c: 73: SSPEN=0;
  4124  0965  1294               	bcf	20,5	;volatile
  4125                           
  4126                           ;TCC_1.c: 74: return(rec);
  4127  0966  0832               	movf	spi_read@rec,w
  4128  0967  0008               	return
  4129  0968                     __end_of_spi_read:	
  4130                           
  4131                           	psect	text12
  4132  07F1                     __ptext12:	
  4133 ;; *************** function _spi_init *****************
  4134 ;; Defined at:
  4135 ;;		line 51 in file "TCC_1.c"
  4136 ;; Parameters:    Size  Location     Type
  4137 ;;		None
  4138 ;; Auto vars:     Size  Location     Type
  4139 ;;		None
  4140 ;; Return value:  Size  Location     Type
  4141 ;;		None               void
  4142 ;; Registers used:
  4143 ;;		wreg, status,2
  4144 ;; Tracked objects:
  4145 ;;		On entry : 0/0
  4146 ;;		On exit  : 0/0
  4147 ;;		Unchanged: 0/0
  4148 ;; Data sizes:     COMMON   BANK0   BANK1   BANK3   BANK2
  4149 ;;      Params:         0       0       0       0       0
  4150 ;;      Locals:         0       0       0       0       0
  4151 ;;      Temps:          0       0       0       0       0
  4152 ;;      Totals:         0       0       0       0       0
  4153 ;;Total ram usage:        0 bytes
  4154 ;; Hardware stack levels used:    1
  4155 ;; Hardware stack levels required when called:    7
  4156 ;; This function calls:
  4157 ;;		Nothing
  4158 ;; This function is called by:
  4159 ;;		_main
  4160 ;; This function uses a non-reentrant model
  4161 ;;
  4162                           
  4163                           
  4164                           ;psect for function _spi_init
  4165  07F1                     _spi_init:	
  4166                           
  4167                           ;TCC_1.c: 55: TRISC5=0;
  4168                           
  4169                           ;incstack = 0
  4170                           ; Regs used in _spi_init: [wreg+status,2]
  4171  07F1  1683               	bsf	3,5	;RP0=1, select bank1
  4172  07F2  1303               	bcf	3,6	;RP1=0, select bank1
  4173  07F3  1287               	bcf	7,5	;volatile
  4174                           
  4175                           ;TCC_1.c: 56: TRISC3=0;
  4176  07F4  1187               	bcf	7,3	;volatile
  4177                           
  4178                           ;TCC_1.c: 58: SSPCON = 0b00110010;
  4179  07F5  3032               	movlw	50
  4180  07F6  1283               	bcf	3,5	;RP0=0, select bank0
  4181  07F7  1303               	bcf	3,6	;RP1=0, select bank0
  4182  07F8  0094               	movwf	20	;volatile
  4183                           
  4184                           ;TCC_1.c: 59: SSPCON2 = 0x00;
  4185  07F9  1683               	bsf	3,5	;RP0=1, select bank1
  4186  07FA  1303               	bcf	3,6	;RP1=0, select bank1
  4187  07FB  0191               	clrf	17	;volatile
  4188                           
  4189                           ;TCC_1.c: 61: SSPSTAT = 0b10000000;
  4190  07FC  3080               	movlw	128
  4191  07FD  0094               	movwf	20	;volatile
  4192  07FE  0008               	return
  4193  07FF                     __end_of_spi_init:	
  4194                           
  4195                           	psect	text13
  4196  0E88                     __ptext13:	
  4197 ;; *************** function _xandi *****************
  4198 ;; Defined at:
  4199 ;;		line 429 in file "TCC_1.c"
  4200 ;; Parameters:    Size  Location     Type
  4201 ;;		None
  4202 ;; Auto vars:     Size  Location     Type
  4203 ;;		None
  4204 ;; Return value:  Size  Location     Type
  4205 ;;		None               void
  4206 ;; Registers used:
  4207 ;;		wreg, fsr0l, fsr0h, status,2, status,0, btemp+1, pclath, cstack
  4208 ;; Tracked objects:
  4209 ;;		On entry : 0/0
  4210 ;;		On exit  : 0/0
  4211 ;;		Unchanged: 0/0
  4212 ;; Data sizes:     COMMON   BANK0   BANK1   BANK3   BANK2
  4213 ;;      Params:         0       0       0       0       0
  4214 ;;      Locals:         0       0       0       0       0
  4215 ;;      Temps:          0       7       0       0       0
  4216 ;;      Totals:         0       7       0       0       0
  4217 ;;Total ram usage:        7 bytes
  4218 ;; Hardware stack levels used:    1
  4219 ;; Hardware stack levels required when called:    6
  4220 ;; This function calls:
  4221 ;;		_acao
  4222 ;;		_inicializacao
  4223 ;;		i1_spi_read
  4224 ;;		i1_menu
  4225 ;;		i1_bip
  4226 ;;		i1_lcd_clear
  4227 ;;		i1_printf
  4228 ;; This function is called by:
  4229 ;;		Interrupt level 1
  4230 ;; This function uses a non-reentrant model
  4231 ;;
  4232                           
  4233                           
  4234                           ;psect for function _xandi
  4235  0E88                     _xandi:	
  4236                           
  4237                           ;TCC_1.c: 430: if(INTF && INTE){
  4238  0E88  188B               	btfsc	11,1	;volatile
  4239  0E89  1E0B               	btfss	11,4	;volatile
  4240  0E8A  2ECA               	goto	i1l2434
  4241                           
  4242                           ;TCC_1.c: 431: INTF=0;
  4243  0E8B  108B               	bcf	11,1	;volatile
  4244                           
  4245                           ;TCC_1.c: 432: _delay((unsigned long)((10)*(8000000/4000.0)));
  4246  0E8C  301A               	movlw	26
  4247  0E8D  00AA               	movwf	??_xandi+1
  4248  0E8E  30F8               	movlw	248
  4249  0E8F  00A9               	movwf	??_xandi
  4250  0E90                     u123_27:	
  4251  0E90  0BA9               	decfsz	??_xandi,f
  4252  0E91  2E90               	goto	u123_27
  4253  0E92  0BAA               	decfsz	??_xandi+1,f
  4254  0E93  2E90               	goto	u123_27
  4255  0E94  0000               	nop
  4256                           
  4257                           ;TCC_1.c: 433: TMR1=0;
  4258  0E95  1283               	bcf	3,5	;RP0=0, select bank0
  4259  0E96  1303               	bcf	3,6	;RP1=0, select bank0
  4260  0E97  018E               	clrf	14	;volatile
  4261  0E98  018F               	clrf	15	;volatile
  4262                           
  4263                           ;TCC_1.c: 434: cont_timer=0;
  4264  0E99  01C9               	clrf	_cont_timer
  4265                           
  4266                           ;TCC_1.c: 435: if(ON==0){
  4267  0E9A  1847               	btfsc	_ON/(0+8),_ON& (0+7)
  4268  0E9B  2EB5               	goto	i1l241
  4269                           
  4270                           ;TCC_1.c: 436: INTCON=0;
  4271  0E9C  018B               	clrf	11	;volatile
  4272                           
  4273                           ;TCC_1.c: 437: RB7=1;
  4274  0E9D  1786               	bsf	6,7	;volatile
  4275                           
  4276                           ;TCC_1.c: 438: ON=1;
  4277  0E9E  1447               	bsf	_ON/(0+8),_ON& (0+7)
  4278                           
  4279                           ;TCC_1.c: 439: posicao=0;
  4280  0E9F  01CC               	clrf	_posicao
  4281                           
  4282                           ;TCC_1.c: 440: inicializacao();
  4283  0EA0  120A  158A  2344   	fcall	_inicializacao
      +       120A  158A         
  4284                           
  4285                           ;TCC_1.c: 441: menu();
  4286  0EA5  120A  158A  2494   	fcall	i1_menu
      +       120A  158A         
  4287                           
  4288                           ;TCC_1.c: 442: T1CON=0b00110001;
  4289  0EAA  3031               	movlw	49
  4290  0EAB  1283               	bcf	3,5	;RP0=0, select bank0
  4291  0EAC  1303               	bcf	3,6	;RP1=0, select bank0
  4292  0EAD  0090               	movwf	16	;volatile
  4293                           
  4294                           ;TCC_1.c: 443: TMR1IE=1;
  4295  0EAE  1683               	bsf	3,5	;RP0=1, select bank1
  4296  0EAF  1303               	bcf	3,6	;RP1=0, select bank1
  4297  0EB0  140C               	bsf	12,0	;volatile
  4298                           
  4299                           ;TCC_1.c: 444: INTCON=0b11011000;
  4300  0EB1  30D8               	movlw	216
  4301  0EB2  008B               	movwf	11	;volatile
  4302                           
  4303                           ;TCC_1.c: 445: INTF=0;
  4304  0EB3  108B               	bcf	11,1	;volatile
  4305                           
  4306                           ;TCC_1.c: 446: return;
  4307  0EB4  2FF4               	goto	i1l242
  4308  0EB5                     i1l241:	
  4309                           
  4310                           ;TCC_1.c: 447: }
  4311                           ;TCC_1.c: 449: if(ON){
  4312  0EB5  1C47               	btfss	_ON/(0+8),_ON& (0+7)
  4313  0EB6  2ECA               	goto	i1l2434
  4314                           
  4315                           ;TCC_1.c: 450: INTCON=0;
  4316  0EB7  018B               	clrf	11	;volatile
  4317                           
  4318                           ;TCC_1.c: 451: if(selec_portas){
  4319  0EB8  1E47               	btfss	_selec_portas/(0+8),_selec_portas& (0+7)
  4320  0EB9  2EBC               	goto	i1l2426
  4321                           
  4322                           ;TCC_1.c: 452: oi=1;
  4323  0EBA  1547               	bsf	_oi/(0+8),_oi& (0+7)
  4324                           
  4325                           ;TCC_1.c: 453: return;
  4326  0EBB  2FF4               	goto	i1l242
  4327  0EBC                     i1l2426:	
  4328                           ;TCC_1.c: 454: }
  4329                           
  4330                           
  4331                           ;TCC_1.c: 455: else acao();
  4332  0EBC  120A  118A  26C7   	fcall	_acao
      +       120A  158A         
  4333                           
  4334                           ;TCC_1.c: 456: if(!ON) return;
  4335  0EC1  1283               	bcf	3,5	;RP0=0, select bank0
  4336  0EC2  1303               	bcf	3,6	;RP1=0, select bank0
  4337  0EC3  1C47               	btfss	_ON/(0+8),_ON& (0+7)
  4338  0EC4  2FF4               	goto	i1l242
  4339                           
  4340                           ;TCC_1.c: 457: menu();
  4341  0EC5  120A  158A  2494   	fcall	i1_menu
      +       120A  158A         
  4342  0ECA                     i1l2434:	
  4343                           
  4344                           ;TCC_1.c: 458: }
  4345                           ;TCC_1.c: 459: }
  4346                           ;TCC_1.c: 461: if(RBIF && RBIE){
  4347  0ECA  180B               	btfsc	11,0	;volatile
  4348  0ECB  1D8B               	btfss	11,3	;volatile
  4349  0ECC  2EFF               	goto	i1l2464
  4350                           
  4351                           ;TCC_1.c: 462: PORTB=PORTB;
  4352  0ECD  1283               	bcf	3,5	;RP0=0, select bank0
  4353  0ECE  1303               	bcf	3,6	;RP1=0, select bank0
  4354  0ECF  0806               	movf	6,w	;volatile
  4355  0ED0  0086               	movwf	6	;volatile
  4356                           
  4357                           ;TCC_1.c: 463: RBIF=0;
  4358  0ED1  100B               	bcf	11,0	;volatile
  4359                           
  4360                           ;TCC_1.c: 464: _delay((unsigned long)((80)*(8000000/4000.0)));
  4361  0ED2  30D0               	movlw	208
  4362  0ED3  00AA               	movwf	??_xandi+1
  4363  0ED4  30C9               	movlw	201
  4364  0ED5  00A9               	movwf	??_xandi
  4365  0ED6                     u124_27:	
  4366  0ED6  0BA9               	decfsz	??_xandi,f
  4367  0ED7  2ED6               	goto	u124_27
  4368  0ED8  0BAA               	decfsz	??_xandi+1,f
  4369  0ED9  2ED6               	goto	u124_27
  4370  0EDA  2EDB               	nop2
  4371                           
  4372                           ;TCC_1.c: 465: TMR1=0;
  4373  0EDB  1283               	bcf	3,5	;RP0=0, select bank0
  4374  0EDC  1303               	bcf	3,6	;RP1=0, select bank0
  4375  0EDD  018E               	clrf	14	;volatile
  4376  0EDE  018F               	clrf	15	;volatile
  4377                           
  4378                           ;TCC_1.c: 466: cont_timer=0;
  4379  0EDF  01C9               	clrf	_cont_timer
  4380                           
  4381                           ;TCC_1.c: 467: if(ON==0) return;
  4382  0EE0  1C47               	btfss	_ON/(0+8),_ON& (0+7)
  4383  0EE1  2FF4               	goto	i1l242
  4384                           
  4385                           ;TCC_1.c: 469: if(!RB1){
  4386  0EE2  1886               	btfsc	6,1	;volatile
  4387  0EE3  2EEC               	goto	i1l2454
  4388                           
  4389                           ;TCC_1.c: 470: if(++posicao==14) posicao=0;
  4390  0EE4  3001               	movlw	1
  4391  0EE5  00A9               	movwf	??_xandi
  4392  0EE6  0829               	movf	??_xandi,w
  4393  0EE7  07CC               	addwf	_posicao,f
  4394  0EE8  084C               	movf	_posicao,w
  4395  0EE9  3A0E               	xorlw	14
  4396  0EEA  1903               	btfsc	3,2
  4397  0EEB  01CC               	clrf	_posicao
  4398  0EEC                     i1l2454:	
  4399                           
  4400                           ;TCC_1.c: 471: }
  4401                           ;TCC_1.c: 473: if(!RB2){
  4402  0EEC  1906               	btfsc	6,2	;volatile
  4403  0EED  2EF8               	goto	i1l2460
  4404                           
  4405                           ;TCC_1.c: 474: if (--posicao==0xFF) posicao=13;
  4406  0EEE  3001               	movlw	1
  4407  0EEF  02CC               	subwf	_posicao,f
  4408  0EF0  084C               	movf	_posicao,w
  4409  0EF1  3AFF               	xorlw	255
  4410  0EF2  1D03               	skipz
  4411  0EF3  2EF8               	goto	i1l2460
  4412  0EF4  300D               	movlw	13
  4413  0EF5  00A9               	movwf	??_xandi
  4414  0EF6  0829               	movf	??_xandi,w
  4415  0EF7  00CC               	movwf	_posicao
  4416  0EF8                     i1l2460:	
  4417                           
  4418                           ;TCC_1.c: 475: }
  4419                           ;TCC_1.c: 476: if(!selec_portas) menu();
  4420  0EF8  1A47               	btfsc	_selec_portas/(0+8),_selec_portas& (0+7)
  4421  0EF9  2EFF               	goto	i1l2464
  4422  0EFA  120A  158A  2494   	fcall	i1_menu
      +       120A  158A         
  4423  0EFF                     i1l2464:	
  4424                           
  4425                           ;TCC_1.c: 477: }
  4426                           ;TCC_1.c: 479: if(TMR2IF && TMR2IE){
  4427  0EFF  1283               	bcf	3,5	;RP0=0, select bank0
  4428  0F00  1303               	bcf	3,6	;RP1=0, select bank0
  4429  0F01  1C8C               	btfss	12,1	;volatile
  4430  0F02  2FAB               	goto	i1l2520
  4431  0F03  1683               	bsf	3,5	;RP0=1, select bank1
  4432  0F04  1303               	bcf	3,6	;RP1=0, select bank1
  4433  0F05  1C8C               	btfss	12,1	;volatile
  4434  0F06  2FAB               	goto	i1l2520
  4435                           
  4436                           ;TCC_1.c: 480: TMR2IF=0;
  4437  0F07  1283               	bcf	3,5	;RP0=0, select bank0
  4438  0F08  1303               	bcf	3,6	;RP1=0, select bank0
  4439  0F09  108C               	bcf	12,1	;volatile
  4440                           
  4441                           ;TCC_1.c: 481: if(++cont==5){
  4442  0F0A  3001               	movlw	1
  4443  0F0B  00A9               	movwf	??_xandi
  4444  0F0C  0829               	movf	??_xandi,w
  4445  0F0D  07C8               	addwf	_cont,f
  4446  0F0E  0848               	movf	_cont,w
  4447  0F0F  3A05               	xorlw	5
  4448  0F10  1D03               	skipz
  4449  0F11  2FAB               	goto	i1l2520
  4450                           
  4451                           ;TCC_1.c: 482: INTCON=0;
  4452  0F12  018B               	clrf	11	;volatile
  4453                           
  4454                           ;TCC_1.c: 483: ok=0xFF;
  4455  0F13  30FF               	movlw	255
  4456  0F14  00A9               	movwf	??_xandi
  4457  0F15  0829               	movf	??_xandi,w
  4458  0F16  00CF               	movwf	_ok
  4459                           
  4460                           ;TCC_1.c: 484: ok=spi_read(0xCC);
  4461  0F17  30CC               	movlw	204
  4462  0F18  120A  158A  2136   	fcall	i1_spi_read
      +       120A  158A         
  4463  0F1D  1283               	bcf	3,5	;RP0=0, select bank0
  4464  0F1E  1303               	bcf	3,6	;RP1=0, select bank0
  4465  0F1F  00A9               	movwf	??_xandi
  4466  0F20  0829               	movf	??_xandi,w
  4467  0F21  00CF               	movwf	_ok
  4468                           
  4469                           ;TCC_1.c: 485: if(ok==buffer){
  4470  0F22  084F               	movf	_ok,w
  4471  0F23  064E               	xorwf	_buffer,w
  4472  0F24  1D03               	skipz
  4473  0F25  2F33               	goto	i1l2492
  4474                           
  4475                           ;TCC_1.c: 486: cont=0;
  4476  0F26  01C8               	clrf	_cont
  4477                           
  4478                           ;TCC_1.c: 487: TMR2ON=0;
  4479  0F27  1112               	bcf	18,2	;volatile
  4480                           
  4481                           ;TCC_1.c: 488: RC1=0;
  4482  0F28  1087               	bcf	7,1	;volatile
  4483                           
  4484                           ;TCC_1.c: 489: if(buffer==222) selec_portas=1;
  4485  0F29  084E               	movf	_buffer,w
  4486  0F2A  3ADE               	xorlw	222
  4487  0F2B  1903               	btfsc	3,2
  4488  0F2C  1647               	bsf	_selec_portas/(0+8),_selec_portas& (0+7)
  4489                           
  4490                           ;TCC_1.c: 490: bip();
  4491  0F2D  120A  158A  2244   	fcall	i1_bip
      +       120A  158A         
  4492                           
  4493                           ;TCC_1.c: 491: }
  4494  0F32  2FA9               	goto	i1l2518
  4495  0F33                     i1l2492:	
  4496                           
  4497                           ;TCC_1.c: 492: else{
  4498                           ;TCC_1.c: 493: cont=0;
  4499  0F33  1283               	bcf	3,5	;RP0=0, select bank0
  4500  0F34  1303               	bcf	3,6	;RP1=0, select bank0
  4501  0F35  01C8               	clrf	_cont
  4502                           
  4503                           ;TCC_1.c: 494: TMR2ON=0;
  4504  0F36  1112               	bcf	18,2	;volatile
  4505                           
  4506                           ;TCC_1.c: 495: RC1=0;
  4507  0F37  1087               	bcf	7,1	;volatile
  4508                           
  4509                           ;TCC_1.c: 496: lcd_clear();
  4510  0F38  120A  158A  211E   	fcall	i1_lcd_clear
      +       120A  158A         
  4511                           
  4512                           ;TCC_1.c: 497: printf("%c  SCID-2013   %c",0,0);
  4513  0F3D  3057               	movlw	low (STR_2| (0+32768))
  4514  0F3E  00F7               	movwf	?i1_printf
  4515  0F3F  3084               	movlw	high (STR_2| (0+32768))
  4516  0F40  00F8               	movwf	?i1_printf+1
  4517  0F41  3000               	movlw	0
  4518  0F42  00F9               	movwf	?i1_printf+2
  4519  0F43  3000               	movlw	0
  4520  0F44  00FA               	movwf	?i1_printf+3
  4521  0F45  3000               	movlw	0
  4522  0F46  00FB               	movwf	?i1_printf+4
  4523  0F47  3000               	movlw	0
  4524  0F48  00FC               	movwf	?i1_printf+5
  4525  0F49  120A  158A  22E7   	fcall	i1_printf
      +       120A  158A         
  4526                           
  4527                           ;TCC_1.c: 498: _delay((unsigned long)((100)*(8000000/4000000.0)));
  4528  0F4E  3042               	movlw	66
  4529  0F4F  1283               	bcf	3,5	;RP0=0, select bank0
  4530  0F50  1303               	bcf	3,6	;RP1=0, select bank0
  4531  0F51  00A9               	movwf	??_xandi
  4532  0F52                     u125_27:	
  4533  0F52  0BA9               	decfsz	??_xandi,f
  4534  0F53  2F52               	goto	u125_27
  4535  0F54  0000               	nop
  4536                           
  4537                           ;TCC_1.c: 499: printf("\nErro de leitura");
  4538  0F55  307C               	movlw	low (STR_57| (0+32768))
  4539  0F56  00F7               	movwf	?i1_printf
  4540  0F57  3084               	movlw	high (STR_57| (0+32768))
  4541  0F58  00F8               	movwf	?i1_printf+1
  4542  0F59  120A  158A  22E7   	fcall	i1_printf
      +       120A  158A         
  4543                           
  4544                           ;TCC_1.c: 500: _delay((unsigned long)((200)*(8000000/4000.0)));
  4545  0F5E  3003               	movlw	3
  4546  0F5F  1283               	bcf	3,5	;RP0=0, select bank0
  4547  0F60  1303               	bcf	3,6	;RP1=0, select bank0
  4548  0F61  00AB               	movwf	??_xandi+2
  4549  0F62  3008               	movlw	8
  4550  0F63  00AA               	movwf	??_xandi+1
  4551  0F64  3078               	movlw	120
  4552  0F65  00A9               	movwf	??_xandi
  4553  0F66                     u126_27:	
  4554  0F66  0BA9               	decfsz	??_xandi,f
  4555  0F67  2F66               	goto	u126_27
  4556  0F68  0BAA               	decfsz	??_xandi+1,f
  4557  0F69  2F66               	goto	u126_27
  4558  0F6A  0BAB               	decfsz	??_xandi+2,f
  4559  0F6B  2F66               	goto	u126_27
  4560                           
  4561                           ;TCC_1.c: 501: _delay((unsigned long)((200)*(8000000/4000.0)));
  4562  0F6C  3003               	movlw	3
  4563  0F6D  1283               	bcf	3,5	;RP0=0, select bank0
  4564  0F6E  1303               	bcf	3,6	;RP1=0, select bank0
  4565  0F6F  00AB               	movwf	??_xandi+2
  4566  0F70  3008               	movlw	8
  4567  0F71  00AA               	movwf	??_xandi+1
  4568  0F72  3078               	movlw	120
  4569  0F73  00A9               	movwf	??_xandi
  4570  0F74                     u127_27:	
  4571  0F74  0BA9               	decfsz	??_xandi,f
  4572  0F75  2F74               	goto	u127_27
  4573  0F76  0BAA               	decfsz	??_xandi+1,f
  4574  0F77  2F74               	goto	u127_27
  4575  0F78  0BAB               	decfsz	??_xandi+2,f
  4576  0F79  2F74               	goto	u127_27
  4577                           
  4578                           ;TCC_1.c: 502: _delay((unsigned long)((200)*(8000000/4000.0)));
  4579  0F7A  3003               	movlw	3
  4580  0F7B  1283               	bcf	3,5	;RP0=0, select bank0
  4581  0F7C  1303               	bcf	3,6	;RP1=0, select bank0
  4582  0F7D  00AB               	movwf	??_xandi+2
  4583  0F7E  3008               	movlw	8
  4584  0F7F  00AA               	movwf	??_xandi+1
  4585  0F80  3078               	movlw	120
  4586  0F81  00A9               	movwf	??_xandi
  4587  0F82                     u128_27:	
  4588  0F82  0BA9               	decfsz	??_xandi,f
  4589  0F83  2F82               	goto	u128_27
  4590  0F84  0BAA               	decfsz	??_xandi+1,f
  4591  0F85  2F82               	goto	u128_27
  4592  0F86  0BAB               	decfsz	??_xandi+2,f
  4593  0F87  2F82               	goto	u128_27
  4594                           
  4595                           ;TCC_1.c: 503: _delay((unsigned long)((200)*(8000000/4000.0)));
  4596  0F88  3003               	movlw	3
  4597  0F89  1283               	bcf	3,5	;RP0=0, select bank0
  4598  0F8A  1303               	bcf	3,6	;RP1=0, select bank0
  4599  0F8B  00AB               	movwf	??_xandi+2
  4600  0F8C  3008               	movlw	8
  4601  0F8D  00AA               	movwf	??_xandi+1
  4602  0F8E  3078               	movlw	120
  4603  0F8F  00A9               	movwf	??_xandi
  4604  0F90                     u129_27:	
  4605  0F90  0BA9               	decfsz	??_xandi,f
  4606  0F91  2F90               	goto	u129_27
  4607  0F92  0BAA               	decfsz	??_xandi+1,f
  4608  0F93  2F90               	goto	u129_27
  4609  0F94  0BAB               	decfsz	??_xandi+2,f
  4610  0F95  2F90               	goto	u129_27
  4611                           
  4612                           ;TCC_1.c: 504: _delay((unsigned long)((200)*(8000000/4000.0)));
  4613  0F96  3003               	movlw	3
  4614  0F97  1283               	bcf	3,5	;RP0=0, select bank0
  4615  0F98  1303               	bcf	3,6	;RP1=0, select bank0
  4616  0F99  00AB               	movwf	??_xandi+2
  4617  0F9A  3008               	movlw	8
  4618  0F9B  00AA               	movwf	??_xandi+1
  4619  0F9C  3078               	movlw	120
  4620  0F9D  00A9               	movwf	??_xandi
  4621  0F9E                     u130_27:	
  4622  0F9E  0BA9               	decfsz	??_xandi,f
  4623  0F9F  2F9E               	goto	u130_27
  4624  0FA0  0BAA               	decfsz	??_xandi+1,f
  4625  0FA1  2F9E               	goto	u130_27
  4626  0FA2  0BAB               	decfsz	??_xandi+2,f
  4627  0FA3  2F9E               	goto	u130_27
  4628                           
  4629                           ;TCC_1.c: 505: menu();
  4630  0FA4  120A  158A  2494   	fcall	i1_menu
      +       120A  158A         
  4631  0FA9                     i1l2518:	
  4632                           
  4633                           ;TCC_1.c: 506: }
  4634                           ;TCC_1.c: 507: INTCON=0b11011000;
  4635  0FA9  30D8               	movlw	216
  4636  0FAA  008B               	movwf	11	;volatile
  4637  0FAB                     i1l2520:	
  4638                           
  4639                           ;TCC_1.c: 508: }
  4640                           ;TCC_1.c: 509: }
  4641                           ;TCC_1.c: 511: if(TMR1IF && TMR1IE){
  4642  0FAB  1283               	bcf	3,5	;RP0=0, select bank0
  4643  0FAC  1303               	bcf	3,6	;RP1=0, select bank0
  4644  0FAD  1C0C               	btfss	12,0	;volatile
  4645  0FAE  2FF4               	goto	i1l242
  4646  0FAF  1683               	bsf	3,5	;RP0=1, select bank1
  4647  0FB0  1303               	bcf	3,6	;RP1=0, select bank1
  4648  0FB1  1C0C               	btfss	12,0	;volatile
  4649  0FB2  2FF4               	goto	i1l242
  4650                           
  4651                           ;TCC_1.c: 512: TMR1IF=0;
  4652  0FB3  1283               	bcf	3,5	;RP0=0, select bank0
  4653  0FB4  1303               	bcf	3,6	;RP1=0, select bank0
  4654  0FB5  100C               	bcf	12,0	;volatile
  4655                           
  4656                           ;TCC_1.c: 513: if(++cont_timer>=70){
  4657  0FB6  3001               	movlw	1
  4658  0FB7  00A9               	movwf	??_xandi
  4659  0FB8  0829               	movf	??_xandi,w
  4660  0FB9  07C9               	addwf	_cont_timer,f
  4661  0FBA  3046               	movlw	70
  4662  0FBB  0249               	subwf	_cont_timer,w
  4663  0FBC  1C03               	skipc
  4664  0FBD  2FF4               	goto	i1l242
  4665                           
  4666                           ;TCC_1.c: 514: cont_timer=0;
  4667  0FBE  01C9               	clrf	_cont_timer
  4668                           
  4669                           ;TCC_1.c: 515: TMR1ON=0;
  4670  0FBF  1010               	bcf	16,0	;volatile
  4671                           
  4672                           ;TCC_1.c: 516: RC1=0;
  4673  0FC0  1087               	bcf	7,1	;volatile
  4674                           
  4675                           ;TCC_1.c: 517: lcd_clear();
  4676  0FC1  120A  158A  211E   	fcall	i1_lcd_clear
      +       120A  158A         
  4677                           
  4678                           ;TCC_1.c: 518: printf("   At%c mais!",1);
  4679  0FC6  3014               	movlw	low (STR_1| (0+32768))
  4680  0FC7  00F7               	movwf	?i1_printf
  4681  0FC8  3085               	movlw	high (STR_1| (0+32768))
  4682  0FC9  00F8               	movwf	?i1_printf+1
  4683  0FCA  3001               	movlw	1
  4684  0FCB  00F9               	movwf	?i1_printf+2
  4685  0FCC  3000               	movlw	0
  4686  0FCD  00FA               	movwf	?i1_printf+3
  4687  0FCE  120A  158A  22E7   	fcall	i1_printf
      +       120A  158A         
  4688                           
  4689                           ;TCC_1.c: 519: _delay((unsigned long)((400)*(8000000/4000.0)));
  4690  0FD3  3005               	movlw	5
  4691  0FD4  1283               	bcf	3,5	;RP0=0, select bank0
  4692  0FD5  1303               	bcf	3,6	;RP1=0, select bank0
  4693  0FD6  00AB               	movwf	??_xandi+2
  4694  0FD7  300F               	movlw	15
  4695  0FD8  00AA               	movwf	??_xandi+1
  4696  0FD9  30F4               	movlw	244
  4697  0FDA  00A9               	movwf	??_xandi
  4698  0FDB                     u131_27:	
  4699  0FDB  0BA9               	decfsz	??_xandi,f
  4700  0FDC  2FDB               	goto	u131_27
  4701  0FDD  0BAA               	decfsz	??_xandi+1,f
  4702  0FDE  2FDB               	goto	u131_27
  4703  0FDF  0BAB               	decfsz	??_xandi+2,f
  4704  0FE0  2FDB               	goto	u131_27
  4705                           
  4706                           ;TCC_1.c: 520: _delay((unsigned long)((400)*(8000000/4000.0)));
  4707  0FE1  3005               	movlw	5
  4708  0FE2  1283               	bcf	3,5	;RP0=0, select bank0
  4709  0FE3  1303               	bcf	3,6	;RP1=0, select bank0
  4710  0FE4  00AB               	movwf	??_xandi+2
  4711  0FE5  300F               	movlw	15
  4712  0FE6  00AA               	movwf	??_xandi+1
  4713  0FE7  30F4               	movlw	244
  4714  0FE8  00A9               	movwf	??_xandi
  4715  0FE9                     u132_27:	
  4716  0FE9  0BA9               	decfsz	??_xandi,f
  4717  0FEA  2FE9               	goto	u132_27
  4718  0FEB  0BAA               	decfsz	??_xandi+1,f
  4719  0FEC  2FE9               	goto	u132_27
  4720  0FED  0BAB               	decfsz	??_xandi+2,f
  4721  0FEE  2FE9               	goto	u132_27
  4722                           
  4723                           ;TCC_1.c: 521: RBIE=0;
  4724  0FEF  118B               	bcf	11,3	;volatile
  4725                           
  4726                           ;TCC_1.c: 522: ON=0;
  4727  0FF0  1283               	bcf	3,5	;RP0=0, select bank0
  4728  0FF1  1303               	bcf	3,6	;RP1=0, select bank0
  4729  0FF2  1047               	bcf	_ON/(0+8),_ON& (0+7)
  4730                           
  4731                           ;TCC_1.c: 523: RB7=0;
  4732  0FF3  1386               	bcf	6,7	;volatile
  4733  0FF4                     i1l242:	
  4734  0FF4  1283               	bcf	3,5	;RP0=0, select bank0
  4735  0FF5  082F               	movf	??_xandi+6,w
  4736  0FF6  00FF               	movwf	127
  4737  0FF7  082E               	movf	??_xandi+5,w
  4738  0FF8  008A               	movwf	10
  4739  0FF9  082D               	movf	??_xandi+4,w
  4740  0FFA  0084               	movwf	4
  4741  0FFB  0E2C               	swapf	(??_xandi+3)^0,w
  4742  0FFC  0083               	movwf	3
  4743  0FFD  0EFE               	swapf	126,f
  4744  0FFE  0E7E               	swapf	126,w
  4745  0FFF  0009               	retfie
  4746  1000                     __end_of_xandi:	
  4747                           
  4748                           	psect	intentry
  4749  0004                     __pintentry:	
  4750                           ;incstack = 0
  4751 ;; hardware stack exceeded
  4752                           ; Regs used in _xandi: [wreg-fsr0h+status,2+status,0+btemp+1+pclath+cstack]
  4753                           
  4754  0004                     interrupt_function:	
  4755  007E                     saved_w	set	btemp
  4756  0004  00FE               	movwf	btemp
  4757  0005  0E03               	swapf	3,w
  4758  0006  1283               	bcf	3,5	;RP0=0, select bank0
  4759  0007  1303               	bcf	3,6	;RP1=0, select bank0
  4760  0008  00AC               	movwf	??_xandi+3
  4761  0009  0804               	movf	4,w
  4762  000A  00AD               	movwf	??_xandi+4
  4763  000B  080A               	movf	10,w
  4764  000C  00AE               	movwf	??_xandi+5
  4765  000D  087F               	movf	btemp+1,w
  4766  000E  00AF               	movwf	??_xandi+6
  4767  000F  120A  158A  2E88   	ljmp	_xandi
  4768                           
  4769                           	psect	text14
  4770  0A44                     __ptext14:	
  4771 ;; *************** function i1_bip *****************
  4772 ;; Defined at:
  4773 ;;		line 249 in file "TCC_1.c"
  4774 ;; Parameters:    Size  Location     Type
  4775 ;;		None
  4776 ;; Auto vars:     Size  Location     Type
  4777 ;;		None
  4778 ;; Return value:  Size  Location     Type
  4779 ;;		None               void
  4780 ;; Registers used:
  4781 ;;		wreg
  4782 ;; Tracked objects:
  4783 ;;		On entry : 0/0
  4784 ;;		On exit  : 0/0
  4785 ;;		Unchanged: 0/0
  4786 ;; Data sizes:     COMMON   BANK0   BANK1   BANK3   BANK2
  4787 ;;      Params:         0       0       0       0       0
  4788 ;;      Locals:         0       0       0       0       0
  4789 ;;      Temps:          3       0       0       0       0
  4790 ;;      Totals:         3       0       0       0       0
  4791 ;;Total ram usage:        3 bytes
  4792 ;; Hardware stack levels used:    1
  4793 ;; This function calls:
  4794 ;;		Nothing
  4795 ;; This function is called by:
  4796 ;;		_xandi
  4797 ;; This function uses a non-reentrant model
  4798 ;;
  4799                           
  4800                           
  4801                           ;psect for function i1_bip
  4802  0A44                     i1_bip:	
  4803                           
  4804                           ;TCC_1.c: 251: RC0=1;
  4805                           
  4806                           ;incstack = 0
  4807 ;; hardware stack exceeded
  4808                           ; Regs used in i1_bip: [wreg]
  4809  0A44  1283               	bcf	3,5	;RP0=0, select bank0
  4810  0A45  1303               	bcf	3,6	;RP1=0, select bank0
  4811  0A46  1407               	bsf	7,0	;volatile
  4812                           
  4813                           ;TCC_1.c: 252: _delay((unsigned long)((100)*(8000000/4000.0)));
  4814  0A47  3002               	movlw	2
  4815  0A48  00F2               	movwf	??i1_bip+2
  4816  0A49  3004               	movlw	4
  4817  0A4A  00F1               	movwf	??i1_bip+1
  4818  0A4B  30BA               	movlw	186
  4819  0A4C  00F0               	movwf	??i1_bip
  4820  0A4D                     u133_27:	
  4821  0A4D  0BF0               	decfsz	??i1_bip,f
  4822  0A4E  2A4D               	goto	u133_27
  4823  0A4F  0BF1               	decfsz	??i1_bip+1,f
  4824  0A50  2A4D               	goto	u133_27
  4825  0A51  0BF2               	decfsz	??i1_bip+2,f
  4826  0A52  2A4D               	goto	u133_27
  4827  0A53  0000               	nop
  4828                           
  4829                           ;TCC_1.c: 253: RC0=0;
  4830  0A54  1283               	bcf	3,5	;RP0=0, select bank0
  4831  0A55  1303               	bcf	3,6	;RP1=0, select bank0
  4832  0A56  1007               	bcf	7,0	;volatile
  4833                           
  4834                           ;TCC_1.c: 254: _delay((unsigned long)((50)*(8000000/4000.0)));
  4835  0A57  3082               	movlw	130
  4836  0A58  00F1               	movwf	??i1_bip+1
  4837  0A59  30DD               	movlw	221
  4838  0A5A  00F0               	movwf	??i1_bip
  4839  0A5B                     u134_27:	
  4840  0A5B  0BF0               	decfsz	??i1_bip,f
  4841  0A5C  2A5B               	goto	u134_27
  4842  0A5D  0BF1               	decfsz	??i1_bip+1,f
  4843  0A5E  2A5B               	goto	u134_27
  4844  0A5F  2A60               	nop2
  4845                           
  4846                           ;TCC_1.c: 255: RC0=1;
  4847  0A60  1283               	bcf	3,5	;RP0=0, select bank0
  4848  0A61  1303               	bcf	3,6	;RP1=0, select bank0
  4849  0A62  1407               	bsf	7,0	;volatile
  4850                           
  4851                           ;TCC_1.c: 256: _delay((unsigned long)((100)*(8000000/4000.0)));
  4852  0A63  3002               	movlw	2
  4853  0A64  00F2               	movwf	??i1_bip+2
  4854  0A65  3004               	movlw	4
  4855  0A66  00F1               	movwf	??i1_bip+1
  4856  0A67  30BA               	movlw	186
  4857  0A68  00F0               	movwf	??i1_bip
  4858  0A69                     u135_27:	
  4859  0A69  0BF0               	decfsz	??i1_bip,f
  4860  0A6A  2A69               	goto	u135_27
  4861  0A6B  0BF1               	decfsz	??i1_bip+1,f
  4862  0A6C  2A69               	goto	u135_27
  4863  0A6D  0BF2               	decfsz	??i1_bip+2,f
  4864  0A6E  2A69               	goto	u135_27
  4865  0A6F  0000               	nop
  4866                           
  4867                           ;TCC_1.c: 257: RC0=0;
  4868  0A70  1283               	bcf	3,5	;RP0=0, select bank0
  4869  0A71  1303               	bcf	3,6	;RP1=0, select bank0
  4870  0A72  1007               	bcf	7,0	;volatile
  4871  0A73  0008               	return
  4872  0A74                     __end_ofi1_bip:	
  4873                           
  4874                           	psect	text15
  4875  0C94                     __ptext15:	
  4876 ;; *************** function i1_menu *****************
  4877 ;; Defined at:
  4878 ;;		line 175 in file "TCC_1.c"
  4879 ;; Parameters:    Size  Location     Type
  4880 ;;		None
  4881 ;; Auto vars:     Size  Location     Type
  4882 ;;		None
  4883 ;; Return value:  Size  Location     Type
  4884 ;;		None               void
  4885 ;; Registers used:
  4886 ;;		wreg, fsr0l, fsr0h, status,2, status,0, btemp+1, pclath, cstack
  4887 ;; Tracked objects:
  4888 ;;		On entry : 0/0
  4889 ;;		On exit  : 0/0
  4890 ;;		Unchanged: 0/0
  4891 ;; Data sizes:     COMMON   BANK0   BANK1   BANK3   BANK2
  4892 ;;      Params:         0       0       0       0       0
  4893 ;;      Locals:         0       0       0       0       0
  4894 ;;      Temps:          1       0       0       0       0
  4895 ;;      Totals:         1       0       0       0       0
  4896 ;;Total ram usage:        1 bytes
  4897 ;; Hardware stack levels used:    1
  4898 ;; Hardware stack levels required when called:    5
  4899 ;; This function calls:
  4900 ;;		i1_lcd_clear
  4901 ;;		i1_printf
  4902 ;; This function is called by:
  4903 ;;		_xandi
  4904 ;; This function uses a non-reentrant model
  4905 ;;
  4906                           
  4907                           
  4908                           ;psect for function i1_menu
  4909  0C94                     i1_menu:	
  4910                           
  4911                           ;TCC_1.c: 177: lcd_clear();
  4912                           
  4913                           ;incstack = 0
  4914 ;; hardware stack exceeded
  4915                           ; Regs used in i1_menu: [wreg-fsr0h+status,2+status,0+btemp+1+pclath+cstack]
  4916  0C94  120A  158A  211E   	fcall	i1_lcd_clear
      +       120A  158A         
  4917                           
  4918                           ;TCC_1.c: 178: printf("%c  SCID-2013   %c\n",0,0);
  4919  0C99  3043               	movlw	low (STR_4| (0+32768))
  4920  0C9A  00F7               	movwf	?i1_printf
  4921  0C9B  3084               	movlw	high (STR_4| (0+32768))
  4922  0C9C  00F8               	movwf	?i1_printf+1
  4923  0C9D  3000               	movlw	0
  4924  0C9E  00F9               	movwf	?i1_printf+2
  4925  0C9F  3000               	movlw	0
  4926  0CA0  00FA               	movwf	?i1_printf+3
  4927  0CA1  3000               	movlw	0
  4928  0CA2  00FB               	movwf	?i1_printf+4
  4929  0CA3  3000               	movlw	0
  4930  0CA4  00FC               	movwf	?i1_printf+5
  4931  0CA5  120A  158A  22E7   	fcall	i1_printf
      +       120A  158A         
  4932                           
  4933                           ;TCC_1.c: 179: _delay((unsigned long)((100)*(8000000/4000000.0)));
  4934  0CAA  3042               	movlw	66
  4935  0CAB  00FD               	movwf	??i1_menu
  4936  0CAC                     u136_27:	
  4937  0CAC  0BFD               	decfsz	??i1_menu,f
  4938  0CAD  2CAC               	goto	u136_27
  4939  0CAE  0000               	nop
  4940                           
  4941                           ;TCC_1.c: 180: switch(posicao){
  4942  0CAF  2D4C               	goto	i1l2382
  4943  0CB0                     i1l2342:	
  4944                           ;TCC_1.c: 181: case 0:
  4945                           
  4946                           
  4947                           ;TCC_1.c: 182: printf("     7400");
  4948  0CB0  306F               	movlw	low (STR_5| (0+32768))
  4949  0CB1  00F7               	movwf	?i1_printf
  4950  0CB2  3086               	movlw	high (STR_5| (0+32768))
  4951  0CB3  00F8               	movwf	?i1_printf+1
  4952  0CB4  120A  158A  22E7   	fcall	i1_printf
  4953                           
  4954                           ;TCC_1.c: 183: break;
  4955  0CB7  0008               	return
  4956  0CB8                     i1l2344:	
  4957                           ;TCC_1.c: 185: case 1:
  4958                           
  4959                           
  4960                           ;TCC_1.c: 186: printf("     7402");
  4961  0CB8  3079               	movlw	low (STR_6| (0+32768))
  4962  0CB9  00F7               	movwf	?i1_printf
  4963  0CBA  3086               	movlw	high (STR_6| (0+32768))
  4964  0CBB  00F8               	movwf	?i1_printf+1
  4965  0CBC  120A  158A  22E7   	fcall	i1_printf
  4966                           
  4967                           ;TCC_1.c: 187: break;
  4968  0CBF  0008               	return
  4969  0CC0                     i1l2346:	
  4970                           ;TCC_1.c: 189: case 2:
  4971                           
  4972                           
  4973                           ;TCC_1.c: 190: printf("     7404");
  4974  0CC0  308D               	movlw	low (STR_7| (0+32768))
  4975  0CC1  00F7               	movwf	?i1_printf
  4976  0CC2  3086               	movlw	high (STR_7| (0+32768))
  4977  0CC3  00F8               	movwf	?i1_printf+1
  4978  0CC4  120A  158A  22E7   	fcall	i1_printf
  4979                           
  4980                           ;TCC_1.c: 191: break;
  4981  0CC7  0008               	return
  4982  0CC8                     i1l2348:	
  4983                           ;TCC_1.c: 193: case 3:
  4984                           
  4985                           
  4986                           ;TCC_1.c: 194: printf("     7408");
  4987  0CC8  30B5               	movlw	low (STR_8| (0+32768))
  4988  0CC9  00F7               	movwf	?i1_printf
  4989  0CCA  3086               	movlw	high (STR_8| (0+32768))
  4990  0CCB  00F8               	movwf	?i1_printf+1
  4991  0CCC  120A  158A  22E7   	fcall	i1_printf
  4992                           
  4993                           ;TCC_1.c: 195: break;
  4994  0CCF  0008               	return
  4995  0CD0                     i1l2350:	
  4996                           ;TCC_1.c: 197: case 4:
  4997                           
  4998                           
  4999                           ;TCC_1.c: 198: printf("     7432");
  5000  0CD0  3083               	movlw	low (STR_9| (0+32768))
  5001  0CD1  00F7               	movwf	?i1_printf
  5002  0CD2  3086               	movlw	high (STR_9| (0+32768))
  5003  0CD3  00F8               	movwf	?i1_printf+1
  5004  0CD4  120A  158A  22E7   	fcall	i1_printf
  5005                           
  5006                           ;TCC_1.c: 199: break;
  5007  0CD7  0008               	return
  5008  0CD8                     i1l2352:	
  5009                           ;TCC_1.c: 201: case 5:
  5010                           
  5011                           
  5012                           ;TCC_1.c: 202: printf("     7447");
  5013  0CD8  30AB               	movlw	low (STR_10| (0+32768))
  5014  0CD9  00F7               	movwf	?i1_printf
  5015  0CDA  3086               	movlw	high (STR_10| (0+32768))
  5016  0CDB  00F8               	movwf	?i1_printf+1
  5017  0CDC  120A  158A  22E7   	fcall	i1_printf
  5018                           
  5019                           ;TCC_1.c: 203: break;
  5020  0CDF  0008               	return
  5021  0CE0                     i1l2354:	
  5022                           ;TCC_1.c: 205: case 6:
  5023                           
  5024                           
  5025                           ;TCC_1.c: 206: printf("     4027*");
  5026  0CE0  3043               	movlw	low (STR_11| (0+32768))
  5027  0CE1  00F7               	movwf	?i1_printf
  5028  0CE2  3086               	movlw	high (STR_11| (0+32768))
  5029  0CE3  00F8               	movwf	?i1_printf+1
  5030  0CE4  120A  158A  22E7   	fcall	i1_printf
  5031                           
  5032                           ;TCC_1.c: 207: break;
  5033  0CE7  0008               	return
  5034  0CE8                     i1l2356:	
  5035                           ;TCC_1.c: 209: case 7:
  5036                           
  5037                           
  5038                           ;TCC_1.c: 210: printf("     7474");
  5039  0CE8  3097               	movlw	low (STR_12| (0+32768))
  5040  0CE9  00F7               	movwf	?i1_printf
  5041  0CEA  3086               	movlw	high (STR_12| (0+32768))
  5042  0CEB  00F8               	movwf	?i1_printf+1
  5043  0CEC  120A  158A  22E7   	fcall	i1_printf
  5044                           
  5045                           ;TCC_1.c: 211: break;
  5046  0CEF  0008               	return
  5047  0CF0                     i1l2358:	
  5048                           ;TCC_1.c: 213: case 8:
  5049                           
  5050                           
  5051                           ;TCC_1.c: 214: printf("     7486");
  5052  0CF0  30A1               	movlw	low (STR_13| (0+32768))
  5053  0CF1  00F7               	movwf	?i1_printf
  5054  0CF2  3086               	movlw	high (STR_13| (0+32768))
  5055  0CF3  00F8               	movwf	?i1_printf+1
  5056  0CF4  120A  158A  22E7   	fcall	i1_printf
  5057                           
  5058                           ;TCC_1.c: 215: break;
  5059  0CF7  0008               	return
  5060  0CF8                     i1l2360:	
  5061                           ;TCC_1.c: 217: case 9:
  5062                           
  5063                           
  5064                           ;TCC_1.c: 218: printf("     74165");
  5065  0CF8  3064               	movlw	low (STR_14| (0+32768))
  5066  0CF9  00F7               	movwf	?i1_printf
  5067  0CFA  3086               	movlw	high (STR_14| (0+32768))
  5068  0CFB  00F8               	movwf	?i1_printf+1
  5069  0CFC  120A  158A  22E7   	fcall	i1_printf
  5070                           
  5071                           ;TCC_1.c: 219: break;
  5072  0CFF  0008               	return
  5073  0D00                     i1l2362:	
  5074                           ;TCC_1.c: 221: case 10:
  5075                           
  5076                           
  5077                           ;TCC_1.c: 222: printf("     74191");
  5078  0D00  304E               	movlw	low (STR_15| (0+32768))
  5079  0D01  00F7               	movwf	?i1_printf
  5080  0D02  3086               	movlw	high (STR_15| (0+32768))
  5081  0D03  00F8               	movwf	?i1_printf+1
  5082  0D04  120A  158A  22E7   	fcall	i1_printf
  5083                           
  5084                           ;TCC_1.c: 223: break;
  5085  0D07  0008               	return
  5086  0D08                     i1l2364:	
  5087                           ;TCC_1.c: 225: case 11:
  5088                           
  5089                           
  5090                           ;TCC_1.c: 226: printf("     74192");
  5091  0D08  3059               	movlw	low (STR_16| (0+32768))
  5092  0D09  00F7               	movwf	?i1_printf
  5093  0D0A  3086               	movlw	high (STR_16| (0+32768))
  5094  0D0B  00F8               	movwf	?i1_printf+1
  5095  0D0C  120A  158A  22E7   	fcall	i1_printf
  5096                           
  5097                           ;TCC_1.c: 227: break;
  5098  0D0F  0008               	return
  5099  0D10                     i1l2366:	
  5100                           ;TCC_1.c: 229: case 12:
  5101                           
  5102                           
  5103                           ;TCC_1.c: 230: lcd_clear();
  5104  0D10  120A  158A  211E   	fcall	i1_lcd_clear
      +       120A  158A         
  5105                           
  5106                           ;TCC_1.c: 231: printf("%c  SCID-2013   %c\n",0,0);
  5107  0D15  3043               	movlw	low (STR_4| (0+32768))
  5108  0D16  00F7               	movwf	?i1_printf
  5109  0D17  3084               	movlw	high (STR_4| (0+32768))
  5110  0D18  00F8               	movwf	?i1_printf+1
  5111  0D19  3000               	movlw	0
  5112  0D1A  00F9               	movwf	?i1_printf+2
  5113  0D1B  3000               	movlw	0
  5114  0D1C  00FA               	movwf	?i1_printf+3
  5115  0D1D  3000               	movlw	0
  5116  0D1E  00FB               	movwf	?i1_printf+4
  5117  0D1F  3000               	movlw	0
  5118  0D20  00FC               	movwf	?i1_printf+5
  5119  0D21  120A  158A  22E7   	fcall	i1_printf
      +       120A  158A         
  5120                           
  5121                           ;TCC_1.c: 232: printf("    Desligar");
  5122  0D26  3036               	movlw	low (STR_18| (0+32768))
  5123  0D27  00F7               	movwf	?i1_printf
  5124  0D28  3086               	movlw	high (STR_18| (0+32768))
  5125  0D29  00F8               	movwf	?i1_printf+1
  5126  0D2A  120A  158A  22E7   	fcall	i1_printf
  5127                           
  5128                           ;TCC_1.c: 233: break;
  5129  0D2D  0008               	return
  5130  0D2E                     i1l2372:	
  5131                           ;TCC_1.c: 235: case 13:
  5132                           
  5133                           
  5134                           ;TCC_1.c: 236: printf(" Selec. portas");
  5135  0D2E  3005               	movlw	low (STR_19| (0+32768))
  5136  0D2F  00F7               	movwf	?i1_printf
  5137  0D30  3085               	movlw	high (STR_19| (0+32768))
  5138  0D31  00F8               	movwf	?i1_printf+1
  5139  0D32  120A  158A  22E7   	fcall	i1_printf
  5140                           
  5141                           ;TCC_1.c: 237: break;
  5142  0D35  0008               	return
  5143  0D36                     i1l2374:	
  5144                           ;TCC_1.c: 239: default:
  5145                           
  5146                           
  5147                           ;TCC_1.c: 240: lcd_clear();
  5148  0D36  120A  158A  211E   	fcall	i1_lcd_clear
      +       120A  158A         
  5149                           
  5150                           ;TCC_1.c: 241: printf("ERRO");
  5151  0D3B  30C2               	movlw	low ((STR_21+3)| (0+32768))
  5152  0D3C  00F7               	movwf	?i1_printf
  5153  0D3D  3086               	movlw	high ((STR_21+3)| (0+32768))
  5154  0D3E  00F8               	movwf	?i1_printf+1
  5155  0D3F  120A  158A  22E7   	fcall	i1_printf
      +       120A  158A         
  5156                           
  5157                           ;TCC_1.c: 242: printf("   ERRO");
  5158  0D44  30BF               	movlw	low (STR_21| (0+32768))
  5159  0D45  00F7               	movwf	?i1_printf
  5160  0D46  3086               	movlw	high (STR_21| (0+32768))
  5161  0D47  00F8               	movwf	?i1_printf+1
  5162  0D48  120A  158A  22E7   	fcall	i1_printf
  5163                           
  5164                           ;TCC_1.c: 245: }
  5165                           
  5166                           ;TCC_1.c: 243: break;
  5167  0D4B  0008               	return
  5168  0D4C                     i1l2382:	
  5169  0D4C  1283               	bcf	3,5	;RP0=0, select bank0
  5170  0D4D  1303               	bcf	3,6	;RP1=0, select bank0
  5171  0D4E  084C               	movf	_posicao,w
  5172                           
  5173                           ; Switch size 1, requested type "space"
  5174                           ; Number of cases is 14, Range of values is 0 to 13
  5175                           ; switch strategies available:
  5176                           ; Name         Instructions Cycles
  5177                           ; simple_byte           43    22 (average)
  5178                           ; direct_byte           50     8 (fixed)
  5179                           ; jumptable            260     6 (fixed)
  5180                           ; rangetable            18     6 (fixed)
  5181                           ; spacedrange           34     9 (fixed)
  5182                           ; locatedrange          14     3 (fixed)
  5183                           ;	Chosen strategy is simple_byte
  5184  0D4F  3A00               	xorlw	0	; case 0
  5185  0D50  1903               	skipnz
  5186  0D51  2CB0               	goto	i1l2342
  5187  0D52  3A01               	xorlw	1	; case 1
  5188  0D53  1903               	skipnz
  5189  0D54  2CB8               	goto	i1l2344
  5190  0D55  3A03               	xorlw	3	; case 2
  5191  0D56  1903               	skipnz
  5192  0D57  2CC0               	goto	i1l2346
  5193  0D58  3A01               	xorlw	1	; case 3
  5194  0D59  1903               	skipnz
  5195  0D5A  2CC8               	goto	i1l2348
  5196  0D5B  3A07               	xorlw	7	; case 4
  5197  0D5C  1903               	skipnz
  5198  0D5D  2CD0               	goto	i1l2350
  5199  0D5E  3A01               	xorlw	1	; case 5
  5200  0D5F  1903               	skipnz
  5201  0D60  2CD8               	goto	i1l2352
  5202  0D61  3A03               	xorlw	3	; case 6
  5203  0D62  1903               	skipnz
  5204  0D63  2CE0               	goto	i1l2354
  5205  0D64  3A01               	xorlw	1	; case 7
  5206  0D65  1903               	skipnz
  5207  0D66  2CE8               	goto	i1l2356
  5208  0D67  3A0F               	xorlw	15	; case 8
  5209  0D68  1903               	skipnz
  5210  0D69  2CF0               	goto	i1l2358
  5211  0D6A  3A01               	xorlw	1	; case 9
  5212  0D6B  1903               	skipnz
  5213  0D6C  2CF8               	goto	i1l2360
  5214  0D6D  3A03               	xorlw	3	; case 10
  5215  0D6E  1903               	skipnz
  5216  0D6F  2D00               	goto	i1l2362
  5217  0D70  3A01               	xorlw	1	; case 11
  5218  0D71  1903               	skipnz
  5219  0D72  2D08               	goto	i1l2364
  5220  0D73  3A07               	xorlw	7	; case 12
  5221  0D74  1903               	skipnz
  5222  0D75  2D10               	goto	i1l2366
  5223  0D76  3A01               	xorlw	1	; case 13
  5224  0D77  1903               	skipnz
  5225  0D78  2D2E               	goto	i1l2372
  5226  0D79  2D36               	goto	i1l2374
  5227  0D7A  0008               	return
  5228  0D7B                     __end_ofi1_menu:	
  5229                           
  5230                           	psect	text16
  5231  0B44                     __ptext16:	
  5232 ;; *************** function _inicializacao *****************
  5233 ;; Defined at:
  5234 ;;		line 414 in file "TCC_1.c"
  5235 ;; Parameters:    Size  Location     Type
  5236 ;;		None
  5237 ;; Auto vars:     Size  Location     Type
  5238 ;;		None
  5239 ;; Return value:  Size  Location     Type
  5240 ;;		None               void
  5241 ;; Registers used:
  5242 ;;		wreg, fsr0l, fsr0h, status,2, status,0, btemp+1, pclath, cstack
  5243 ;; Tracked objects:
  5244 ;;		On entry : 0/0
  5245 ;;		On exit  : 0/0
  5246 ;;		Unchanged: 0/0
  5247 ;; Data sizes:     COMMON   BANK0   BANK1   BANK3   BANK2
  5248 ;;      Params:         0       0       0       0       0
  5249 ;;      Locals:         0       0       0       0       0
  5250 ;;      Temps:          0       3       0       0       0
  5251 ;;      Totals:         0       3       0       0       0
  5252 ;;Total ram usage:        3 bytes
  5253 ;; Hardware stack levels used:    1
  5254 ;; Hardware stack levels required when called:    5
  5255 ;; This function calls:
  5256 ;;		i1_lcd_clear
  5257 ;;		i1_printf
  5258 ;; This function is called by:
  5259 ;;		_xandi
  5260 ;; This function uses a non-reentrant model
  5261 ;;
  5262                           
  5263                           
  5264                           ;psect for function _inicializacao
  5265  0B44                     _inicializacao:	
  5266                           
  5267                           ;TCC_1.c: 415: lcd_clear();
  5268                           
  5269                           ;incstack = 0
  5270 ;; hardware stack exceeded
  5271                           ; Regs used in _inicializacao: [wreg-fsr0h+status,2+status,0+btemp+1+pclath+cstack]
  5272  0B44  120A  158A  211E   	fcall	i1_lcd_clear
      +       120A  158A         
  5273                           
  5274                           ;TCC_1.c: 416: printf("%cSubstituidor de\nCKT's integrados", 0);
  5275  0B49  3000               	movlw	low (STR_54| (0+32768))
  5276  0B4A  00F7               	movwf	?i1_printf
  5277  0B4B  3084               	movlw	high (STR_54| (0+32768))
  5278  0B4C  00F8               	movwf	?i1_printf+1
  5279  0B4D  3000               	movlw	0
  5280  0B4E  00F9               	movwf	?i1_printf+2
  5281  0B4F  3000               	movlw	0
  5282  0B50  00FA               	movwf	?i1_printf+3
  5283  0B51  120A  158A  22E7   	fcall	i1_printf
      +       120A  158A         
  5284                           
  5285                           ;TCC_1.c: 417: _delay((unsigned long)((500)*(8000000/4000.0)));
  5286  0B56  3006               	movlw	6
  5287  0B57  1283               	bcf	3,5	;RP0=0, select bank0
  5288  0B58  1303               	bcf	3,6	;RP1=0, select bank0
  5289  0B59  00A8               	movwf	??_inicializacao+2
  5290  0B5A  3013               	movlw	19
  5291  0B5B  00A7               	movwf	??_inicializacao+1
  5292  0B5C  30B1               	movlw	177
  5293  0B5D  00A6               	movwf	??_inicializacao
  5294  0B5E                     u137_27:	
  5295  0B5E  0BA6               	decfsz	??_inicializacao,f
  5296  0B5F  2B5E               	goto	u137_27
  5297  0B60  0BA7               	decfsz	??_inicializacao+1,f
  5298  0B61  2B5E               	goto	u137_27
  5299  0B62  0BA8               	decfsz	??_inicializacao+2,f
  5300  0B63  2B5E               	goto	u137_27
  5301  0B64  2B65               	nop2
  5302                           
  5303                           ;TCC_1.c: 418: _delay((unsigned long)((500)*(8000000/4000.0)));
  5304  0B65  3006               	movlw	6
  5305  0B66  1283               	bcf	3,5	;RP0=0, select bank0
  5306  0B67  1303               	bcf	3,6	;RP1=0, select bank0
  5307  0B68  00A8               	movwf	??_inicializacao+2
  5308  0B69  3013               	movlw	19
  5309  0B6A  00A7               	movwf	??_inicializacao+1
  5310  0B6B  30B1               	movlw	177
  5311  0B6C  00A6               	movwf	??_inicializacao
  5312  0B6D                     u138_27:	
  5313  0B6D  0BA6               	decfsz	??_inicializacao,f
  5314  0B6E  2B6D               	goto	u138_27
  5315  0B6F  0BA7               	decfsz	??_inicializacao+1,f
  5316  0B70  2B6D               	goto	u138_27
  5317  0B71  0BA8               	decfsz	??_inicializacao+2,f
  5318  0B72  2B6D               	goto	u138_27
  5319  0B73  2B74               	nop2
  5320                           
  5321                           ;TCC_1.c: 419: _delay((unsigned long)((500)*(8000000/4000.0)));
  5322  0B74  3006               	movlw	6
  5323  0B75  1283               	bcf	3,5	;RP0=0, select bank0
  5324  0B76  1303               	bcf	3,6	;RP1=0, select bank0
  5325  0B77  00A8               	movwf	??_inicializacao+2
  5326  0B78  3013               	movlw	19
  5327  0B79  00A7               	movwf	??_inicializacao+1
  5328  0B7A  30B1               	movlw	177
  5329  0B7B  00A6               	movwf	??_inicializacao
  5330  0B7C                     u139_27:	
  5331  0B7C  0BA6               	decfsz	??_inicializacao,f
  5332  0B7D  2B7C               	goto	u139_27
  5333  0B7E  0BA7               	decfsz	??_inicializacao+1,f
  5334  0B7F  2B7C               	goto	u139_27
  5335  0B80  0BA8               	decfsz	??_inicializacao+2,f
  5336  0B81  2B7C               	goto	u139_27
  5337  0B82  2B83               	nop2
  5338                           
  5339                           ;TCC_1.c: 420: lcd_clear();
  5340  0B83  120A  158A  211E   	fcall	i1_lcd_clear
      +       120A  158A         
  5341                           
  5342                           ;TCC_1.c: 421: printf(" Alexandre Lima\n TC 2013 - 4411");
  5343  0B88  3023               	movlw	low (STR_55| (0+32768))
  5344  0B89  00F7               	movwf	?i1_printf
  5345  0B8A  3084               	movlw	high (STR_55| (0+32768))
  5346  0B8B  00F8               	movwf	?i1_printf+1
  5347  0B8C  120A  158A  22E7   	fcall	i1_printf
      +       120A  158A         
  5348                           
  5349                           ;TCC_1.c: 422: _delay((unsigned long)((500)*(8000000/4000.0)));
  5350  0B91  3006               	movlw	6
  5351  0B92  1283               	bcf	3,5	;RP0=0, select bank0
  5352  0B93  1303               	bcf	3,6	;RP1=0, select bank0
  5353  0B94  00A8               	movwf	??_inicializacao+2
  5354  0B95  3013               	movlw	19
  5355  0B96  00A7               	movwf	??_inicializacao+1
  5356  0B97  30B1               	movlw	177
  5357  0B98  00A6               	movwf	??_inicializacao
  5358  0B99                     u140_27:	
  5359  0B99  0BA6               	decfsz	??_inicializacao,f
  5360  0B9A  2B99               	goto	u140_27
  5361  0B9B  0BA7               	decfsz	??_inicializacao+1,f
  5362  0B9C  2B99               	goto	u140_27
  5363  0B9D  0BA8               	decfsz	??_inicializacao+2,f
  5364  0B9E  2B99               	goto	u140_27
  5365  0B9F  2BA0               	nop2
  5366                           
  5367                           ;TCC_1.c: 423: _delay((unsigned long)((500)*(8000000/4000.0)));
  5368  0BA0  3006               	movlw	6
  5369  0BA1  1283               	bcf	3,5	;RP0=0, select bank0
  5370  0BA2  1303               	bcf	3,6	;RP1=0, select bank0
  5371  0BA3  00A8               	movwf	??_inicializacao+2
  5372  0BA4  3013               	movlw	19
  5373  0BA5  00A7               	movwf	??_inicializacao+1
  5374  0BA6  30B1               	movlw	177
  5375  0BA7  00A6               	movwf	??_inicializacao
  5376  0BA8                     u141_27:	
  5377  0BA8  0BA6               	decfsz	??_inicializacao,f
  5378  0BA9  2BA8               	goto	u141_27
  5379  0BAA  0BA7               	decfsz	??_inicializacao+1,f
  5380  0BAB  2BA8               	goto	u141_27
  5381  0BAC  0BA8               	decfsz	??_inicializacao+2,f
  5382  0BAD  2BA8               	goto	u141_27
  5383  0BAE  2BAF               	nop2
  5384                           
  5385                           ;TCC_1.c: 424: _delay((unsigned long)((500)*(8000000/4000.0)));
  5386  0BAF  3006               	movlw	6
  5387  0BB0  1283               	bcf	3,5	;RP0=0, select bank0
  5388  0BB1  1303               	bcf	3,6	;RP1=0, select bank0
  5389  0BB2  00A8               	movwf	??_inicializacao+2
  5390  0BB3  3013               	movlw	19
  5391  0BB4  00A7               	movwf	??_inicializacao+1
  5392  0BB5  30B1               	movlw	177
  5393  0BB6  00A6               	movwf	??_inicializacao
  5394  0BB7                     u142_27:	
  5395  0BB7  0BA6               	decfsz	??_inicializacao,f
  5396  0BB8  2BB7               	goto	u142_27
  5397  0BB9  0BA7               	decfsz	??_inicializacao+1,f
  5398  0BBA  2BB7               	goto	u142_27
  5399  0BBB  0BA8               	decfsz	??_inicializacao+2,f
  5400  0BBC  2BB7               	goto	u142_27
  5401  0BBD  2BBE               	nop2
  5402                           
  5403                           ;TCC_1.c: 425: lcd_clear();
  5404  0BBE  120A  158A  211E   	fcall	i1_lcd_clear
  5405                           
  5406                           ;TCC_1.c: 426: INTF=0;
  5407  0BC1  108B               	bcf	11,1	;volatile
  5408  0BC2  0008               	return
  5409  0BC3                     __end_of_inicializacao:	
  5410                           
  5411                           	psect	text17
  5412  06C7                     __ptext17:	
  5413 ;; *************** function _acao *****************
  5414 ;; Defined at:
  5415 ;;		line 81 in file "TCC_1.c"
  5416 ;; Parameters:    Size  Location     Type
  5417 ;;		None
  5418 ;; Auto vars:     Size  Location     Type
  5419 ;;		None
  5420 ;; Return value:  Size  Location     Type
  5421 ;;		None               void
  5422 ;; Registers used:
  5423 ;;		wreg, fsr0l, fsr0h, status,2, status,0, btemp+1, pclath, cstack
  5424 ;; Tracked objects:
  5425 ;;		On entry : 0/0
  5426 ;;		On exit  : 0/0
  5427 ;;		Unchanged: 0/0
  5428 ;; Data sizes:     COMMON   BANK0   BANK1   BANK3   BANK2
  5429 ;;      Params:         0       0       0       0       0
  5430 ;;      Locals:         0       0       0       0       0
  5431 ;;      Temps:          0       3       0       0       0
  5432 ;;      Totals:         0       3       0       0       0
  5433 ;;Total ram usage:        3 bytes
  5434 ;; Hardware stack levels used:    1
  5435 ;; Hardware stack levels required when called:    5
  5436 ;; This function calls:
  5437 ;;		i1_spi_read
  5438 ;;		i1_lcd_clear
  5439 ;;		i1_printf
  5440 ;; This function is called by:
  5441 ;;		_xandi
  5442 ;; This function uses a non-reentrant model
  5443 ;;
  5444                           
  5445                           
  5446                           ;psect for function _acao
  5447  06C7                     _acao:	
  5448                           
  5449                           ;TCC_1.c: 82: RC1=1;
  5450                           
  5451                           ;incstack = 0
  5452 ;; hardware stack exceeded
  5453                           ; Regs used in _acao: [wreg-fsr0h+status,2+status,0+btemp+1+pclath+cstack]
  5454  06C7  1283               	bcf	3,5	;RP0=0, select bank0
  5455  06C8  1303               	bcf	3,6	;RP1=0, select bank0
  5456  06C9  1487               	bsf	7,1	;volatile
  5457                           
  5458                           ;TCC_1.c: 83: buffer=0xFF;
  5459  06CA  30FF               	movlw	255
  5460  06CB  00A6               	movwf	??_acao
  5461  06CC  0826               	movf	??_acao,w
  5462  06CD  00CE               	movwf	_buffer
  5463                           
  5464                           ;TCC_1.c: 84: _delay((unsigned long)((100)*(8000000/4000.0)));
  5465  06CE  3002               	movlw	2
  5466  06CF  00A8               	movwf	??_acao+2
  5467  06D0  3004               	movlw	4
  5468  06D1  00A7               	movwf	??_acao+1
  5469  06D2  30BA               	movlw	186
  5470  06D3  00A6               	movwf	??_acao
  5471  06D4                     u143_27:	
  5472  06D4  0BA6               	decfsz	??_acao,f
  5473  06D5  2ED4               	goto	u143_27
  5474  06D6  0BA7               	decfsz	??_acao+1,f
  5475  06D7  2ED4               	goto	u143_27
  5476  06D8  0BA8               	decfsz	??_acao+2,f
  5477  06D9  2ED4               	goto	u143_27
  5478  06DA  0000               	nop
  5479                           
  5480                           ;TCC_1.c: 85: switch(posicao){
  5481  06DB  2F35               	goto	i1l2288
  5482  06DC                     i1l2240:	
  5483                           ;TCC_1.c: 86: case 0:
  5484                           
  5485                           
  5486                           ;TCC_1.c: 87: buffer=0;
  5487  06DC  1283               	bcf	3,5	;RP0=0, select bank0
  5488  06DD  1303               	bcf	3,6	;RP1=0, select bank0
  5489  06DE  01CE               	clrf	_buffer
  5490                           
  5491                           ;TCC_1.c: 88: break;
  5492  06DF  2F63               	goto	i1l127
  5493  06E0                     i1l2242:	
  5494                           ;TCC_1.c: 90: case 1:
  5495                           
  5496                           
  5497                           ;TCC_1.c: 91: buffer=2;
  5498  06E0  3002               	movlw	2
  5499  06E1  2F31               	goto	L11
  5500  06E2                     i1l2244:	
  5501                           ;TCC_1.c: 94: case 2:
  5502                           
  5503                           ;TCC_1.c: 92: break;
  5504                           
  5505                           
  5506                           ;TCC_1.c: 95: buffer=4;
  5507  06E2  3004               	movlw	4
  5508  06E3  2F31               	goto	L11
  5509  06E4                     i1l2246:	
  5510                           ;TCC_1.c: 98: case 3:
  5511                           
  5512                           ;TCC_1.c: 96: break;
  5513                           
  5514                           
  5515                           ;TCC_1.c: 99: buffer=8;
  5516  06E4  3008               	movlw	8
  5517  06E5  2F31               	goto	L11
  5518  06E6                     i1l2248:	
  5519                           ;TCC_1.c: 102: case 4:
  5520                           
  5521                           ;TCC_1.c: 100: break;
  5522                           
  5523                           
  5524                           ;TCC_1.c: 103: buffer=32;
  5525  06E6  3020               	movlw	32
  5526  06E7  2F31               	goto	L11
  5527  06E8                     i1l2250:	
  5528                           ;TCC_1.c: 106: case 5:
  5529                           
  5530                           ;TCC_1.c: 104: break;
  5531                           
  5532                           
  5533                           ;TCC_1.c: 107: buffer=47;
  5534  06E8  302F               	movlw	47
  5535  06E9  2F31               	goto	L11
  5536  06EA                     i1l2252:	
  5537                           ;TCC_1.c: 110: case 6:
  5538                           
  5539                           ;TCC_1.c: 108: break;
  5540                           
  5541                           
  5542                           ;TCC_1.c: 111: buffer=73;
  5543  06EA  3049               	movlw	73
  5544  06EB  2F31               	goto	L11
  5545  06EC                     i1l2254:	
  5546                           ;TCC_1.c: 114: case 7:
  5547                           
  5548                           ;TCC_1.c: 112: break;
  5549                           
  5550                           
  5551                           ;TCC_1.c: 115: buffer=74;
  5552  06EC  304A               	movlw	74
  5553  06ED  2F31               	goto	L11
  5554  06EE                     i1l2256:	
  5555                           ;TCC_1.c: 118: case 8:
  5556                           
  5557                           ;TCC_1.c: 116: break;
  5558                           
  5559                           
  5560                           ;TCC_1.c: 119: buffer=86;
  5561  06EE  3056               	movlw	86
  5562  06EF  2F31               	goto	L11
  5563  06F0                     i1l2258:	
  5564                           ;TCC_1.c: 122: case 9:
  5565                           
  5566                           ;TCC_1.c: 120: break;
  5567                           
  5568                           
  5569                           ;TCC_1.c: 123: buffer=165;
  5570  06F0  30A5               	movlw	165
  5571  06F1  2F31               	goto	L11
  5572  06F2                     i1l2260:	
  5573                           ;TCC_1.c: 126: case 10:
  5574                           
  5575                           ;TCC_1.c: 124: break;
  5576                           
  5577                           
  5578                           ;TCC_1.c: 127: buffer=191;
  5579  06F2  30BF               	movlw	191
  5580  06F3  2F31               	goto	L11
  5581  06F4                     i1l2262:	
  5582                           ;TCC_1.c: 130: case 11:
  5583                           
  5584                           ;TCC_1.c: 128: break;
  5585                           
  5586                           
  5587                           ;TCC_1.c: 131: buffer=192;
  5588  06F4  30C0               	movlw	192
  5589  06F5  2F31               	goto	L11
  5590  06F6                     i1l139:	
  5591                           ;TCC_1.c: 134: case 12:
  5592                           
  5593                           ;TCC_1.c: 132: break;
  5594                           
  5595                           
  5596                           ;TCC_1.c: 135: RC1=0;
  5597  06F6  1087               	bcf	7,1	;volatile
  5598                           
  5599                           ;TCC_1.c: 136: lcd_clear();
  5600  06F7  120A  158A  211E   	fcall	i1_lcd_clear
      +       120A  118A         
  5601                           
  5602                           ;TCC_1.c: 137: printf("   At%c mais!",1);
  5603  06FC  3014               	movlw	low (STR_1| (0+32768))
  5604  06FD  00F7               	movwf	?i1_printf
  5605  06FE  3085               	movlw	high (STR_1| (0+32768))
  5606  06FF  00F8               	movwf	?i1_printf+1
  5607  0700  3001               	movlw	1
  5608  0701  00F9               	movwf	?i1_printf+2
  5609  0702  3000               	movlw	0
  5610  0703  00FA               	movwf	?i1_printf+3
  5611  0704  120A  158A  22E7   	fcall	i1_printf
      +       120A  118A         
  5612                           
  5613                           ;TCC_1.c: 138: _delay((unsigned long)((400)*(8000000/4000.0)));
  5614  0709  3005               	movlw	5
  5615  070A  1283               	bcf	3,5	;RP0=0, select bank0
  5616  070B  1303               	bcf	3,6	;RP1=0, select bank0
  5617  070C  00A8               	movwf	??_acao+2
  5618  070D  300F               	movlw	15
  5619  070E  00A7               	movwf	??_acao+1
  5620  070F  30F4               	movlw	244
  5621  0710  00A6               	movwf	??_acao
  5622  0711                     u144_27:	
  5623  0711  0BA6               	decfsz	??_acao,f
  5624  0712  2F11               	goto	u144_27
  5625  0713  0BA7               	decfsz	??_acao+1,f
  5626  0714  2F11               	goto	u144_27
  5627  0715  0BA8               	decfsz	??_acao+2,f
  5628  0716  2F11               	goto	u144_27
  5629                           
  5630                           ;TCC_1.c: 139: _delay((unsigned long)((400)*(8000000/4000.0)));
  5631  0717  3005               	movlw	5
  5632  0718  1283               	bcf	3,5	;RP0=0, select bank0
  5633  0719  1303               	bcf	3,6	;RP1=0, select bank0
  5634  071A  00A8               	movwf	??_acao+2
  5635  071B  300F               	movlw	15
  5636  071C  00A7               	movwf	??_acao+1
  5637  071D  30F4               	movlw	244
  5638  071E  00A6               	movwf	??_acao
  5639  071F                     u145_27:	
  5640  071F  0BA6               	decfsz	??_acao,f
  5641  0720  2F1F               	goto	u145_27
  5642  0721  0BA7               	decfsz	??_acao+1,f
  5643  0722  2F1F               	goto	u145_27
  5644  0723  0BA8               	decfsz	??_acao+2,f
  5645  0724  2F1F               	goto	u145_27
  5646                           
  5647                           ;TCC_1.c: 140: INTCON=0b10010000;
  5648  0725  3090               	movlw	144
  5649  0726  008B               	movwf	11	;volatile
  5650                           
  5651                           ;TCC_1.c: 141: cont_timer=0;
  5652  0727  1283               	bcf	3,5	;RP0=0, select bank0
  5653  0728  1303               	bcf	3,6	;RP1=0, select bank0
  5654  0729  01C9               	clrf	_cont_timer
  5655                           
  5656                           ;TCC_1.c: 142: TMR1=0;
  5657  072A  018E               	clrf	14	;volatile
  5658  072B  018F               	clrf	15	;volatile
  5659                           
  5660                           ;TCC_1.c: 143: TMR1ON=0;
  5661  072C  1010               	bcf	16,0	;volatile
  5662                           
  5663                           ;TCC_1.c: 144: ON=0;
  5664  072D  1047               	bcf	_ON/(0+8),_ON& (0+7)
  5665                           
  5666                           ;TCC_1.c: 145: RB7=0;
  5667  072E  1386               	bcf	6,7	;volatile
  5668                           
  5669                           ;TCC_1.c: 146: break;
  5670  072F  2F63               	goto	i1l127
  5671  0730                     i1l2284:	
  5672                           ;TCC_1.c: 148: case 13:
  5673                           
  5674                           
  5675                           ;TCC_1.c: 149: buffer=222;
  5676  0730  30DE               	movlw	222
  5677  0731                     L11:	
  5678  0731  00A6               	movwf	??_acao
  5679  0732  0826               	movf	??_acao,w
  5680  0733  00CE               	movwf	_buffer
  5681                           
  5682                           ;TCC_1.c: 152: }
  5683                           
  5684                           ;TCC_1.c: 150: break;
  5685  0734  2F63               	goto	i1l127
  5686  0735                     i1l2288:	
  5687  0735  1283               	bcf	3,5	;RP0=0, select bank0
  5688  0736  1303               	bcf	3,6	;RP1=0, select bank0
  5689  0737  084C               	movf	_posicao,w
  5690                           
  5691                           ; Switch size 1, requested type "space"
  5692                           ; Number of cases is 14, Range of values is 0 to 13
  5693                           ; switch strategies available:
  5694                           ; Name         Instructions Cycles
  5695                           ; simple_byte           43    22 (average)
  5696                           ; direct_byte           50     8 (fixed)
  5697                           ; jumptable            260     6 (fixed)
  5698                           ; rangetable            18     6 (fixed)
  5699                           ; spacedrange           34     9 (fixed)
  5700                           ; locatedrange          14     3 (fixed)
  5701                           ;	Chosen strategy is simple_byte
  5702  0738  3A00               	xorlw	0	; case 0
  5703  0739  1903               	skipnz
  5704  073A  2EDC               	goto	i1l2240
  5705  073B  3A01               	xorlw	1	; case 1
  5706  073C  1903               	skipnz
  5707  073D  2EE0               	goto	i1l2242
  5708  073E  3A03               	xorlw	3	; case 2
  5709  073F  1903               	skipnz
  5710  0740  2EE2               	goto	i1l2244
  5711  0741  3A01               	xorlw	1	; case 3
  5712  0742  1903               	skipnz
  5713  0743  2EE4               	goto	i1l2246
  5714  0744  3A07               	xorlw	7	; case 4
  5715  0745  1903               	skipnz
  5716  0746  2EE6               	goto	i1l2248
  5717  0747  3A01               	xorlw	1	; case 5
  5718  0748  1903               	skipnz
  5719  0749  2EE8               	goto	i1l2250
  5720  074A  3A03               	xorlw	3	; case 6
  5721  074B  1903               	skipnz
  5722  074C  2EEA               	goto	i1l2252
  5723  074D  3A01               	xorlw	1	; case 7
  5724  074E  1903               	skipnz
  5725  074F  2EEC               	goto	i1l2254
  5726  0750  3A0F               	xorlw	15	; case 8
  5727  0751  1903               	skipnz
  5728  0752  2EEE               	goto	i1l2256
  5729  0753  3A01               	xorlw	1	; case 9
  5730  0754  1903               	skipnz
  5731  0755  2EF0               	goto	i1l2258
  5732  0756  3A03               	xorlw	3	; case 10
  5733  0757  1903               	skipnz
  5734  0758  2EF2               	goto	i1l2260
  5735  0759  3A01               	xorlw	1	; case 11
  5736  075A  1903               	skipnz
  5737  075B  2EF4               	goto	i1l2262
  5738  075C  3A07               	xorlw	7	; case 12
  5739  075D  1903               	skipnz
  5740  075E  2EF6               	goto	i1l139
  5741  075F  3A01               	xorlw	1	; case 13
  5742  0760  1903               	skipnz
  5743  0761  2F30               	goto	i1l2284
  5744  0762  2F63               	goto	i1l127
  5745  0763                     i1l127:	
  5746                           
  5747                           ;TCC_1.c: 153: if(ON){
  5748  0763  1C47               	btfss	_ON/(0+8),_ON& (0+7)
  5749  0764  0008               	return
  5750                           
  5751                           ;TCC_1.c: 154: ok=spi_read(0xAC);
  5752  0765  30AC               	movlw	172
  5753  0766  120A  158A  2136   	fcall	i1_spi_read
      +       120A  118A         
  5754  076B  1283               	bcf	3,5	;RP0=0, select bank0
  5755  076C  1303               	bcf	3,6	;RP1=0, select bank0
  5756  076D  00A6               	movwf	??_acao
  5757  076E  0826               	movf	??_acao,w
  5758  076F  00CF               	movwf	_ok
  5759                           
  5760                           ;TCC_1.c: 155: if(ok==0xAA){
  5761  0770  084F               	movf	_ok,w
  5762  0771  3AAA               	xorlw	170
  5763  0772  1D03               	skipz
  5764  0773  2F81               	goto	i1l142
  5765                           
  5766                           ;TCC_1.c: 156: ok=spi_read(buffer);
  5767  0774  084E               	movf	_buffer,w
  5768  0775  120A  158A  2136   	fcall	i1_spi_read
      +       120A  118A         
  5769  077A  1283               	bcf	3,5	;RP0=0, select bank0
  5770  077B  1303               	bcf	3,6	;RP1=0, select bank0
  5771  077C  00A6               	movwf	??_acao
  5772  077D  0826               	movf	??_acao,w
  5773  077E  00CF               	movwf	_ok
  5774                           
  5775                           ;TCC_1.c: 157: TMR2ON=1;
  5776  077F  1512               	bsf	18,2	;volatile
  5777                           
  5778                           ;TCC_1.c: 158: }
  5779  0780  2FEE               	goto	i1l2316
  5780  0781                     i1l142:	
  5781                           
  5782                           ;TCC_1.c: 159: else {
  5783                           ;TCC_1.c: 160: RC1=0;
  5784  0781  1087               	bcf	7,1	;volatile
  5785                           
  5786                           ;TCC_1.c: 161: lcd_clear();
  5787  0782  120A  158A  211E   	fcall	i1_lcd_clear
      +       120A  118A         
  5788                           
  5789                           ;TCC_1.c: 162: printf("%c  SCID-2013   %c",0,0);
  5790  0787  3057               	movlw	low (STR_2| (0+32768))
  5791  0788  00F7               	movwf	?i1_printf
  5792  0789  3084               	movlw	high (STR_2| (0+32768))
  5793  078A  00F8               	movwf	?i1_printf+1
  5794  078B  3000               	movlw	0
  5795  078C  00F9               	movwf	?i1_printf+2
  5796  078D  3000               	movlw	0
  5797  078E  00FA               	movwf	?i1_printf+3
  5798  078F  3000               	movlw	0
  5799  0790  00FB               	movwf	?i1_printf+4
  5800  0791  3000               	movlw	0
  5801  0792  00FC               	movwf	?i1_printf+5
  5802  0793  120A  158A  22E7   	fcall	i1_printf
      +       120A  118A         
  5803                           
  5804                           ;TCC_1.c: 163: _delay((unsigned long)((100)*(8000000/4000000.0)));
  5805  0798  3042               	movlw	66
  5806  0799  1283               	bcf	3,5	;RP0=0, select bank0
  5807  079A  1303               	bcf	3,6	;RP1=0, select bank0
  5808  079B  00A6               	movwf	??_acao
  5809  079C                     u146_27:	
  5810  079C  0BA6               	decfsz	??_acao,f
  5811  079D  2F9C               	goto	u146_27
  5812  079E  0000               	nop
  5813                           
  5814                           ;TCC_1.c: 164: printf("\nErro de gravacao");
  5815  079F  306A               	movlw	low (STR_3| (0+32768))
  5816  07A0  00F7               	movwf	?i1_printf
  5817  07A1  3084               	movlw	high (STR_3| (0+32768))
  5818  07A2  00F8               	movwf	?i1_printf+1
  5819  07A3  120A  158A  22E7   	fcall	i1_printf
      +       120A  118A         
  5820                           
  5821                           ;TCC_1.c: 165: _delay((unsigned long)((200)*(8000000/4000.0)));
  5822  07A8  3003               	movlw	3
  5823  07A9  1283               	bcf	3,5	;RP0=0, select bank0
  5824  07AA  1303               	bcf	3,6	;RP1=0, select bank0
  5825  07AB  00A8               	movwf	??_acao+2
  5826  07AC  3008               	movlw	8
  5827  07AD  00A7               	movwf	??_acao+1
  5828  07AE  3078               	movlw	120
  5829  07AF  00A6               	movwf	??_acao
  5830  07B0                     u147_27:	
  5831  07B0  0BA6               	decfsz	??_acao,f
  5832  07B1  2FB0               	goto	u147_27
  5833  07B2  0BA7               	decfsz	??_acao+1,f
  5834  07B3  2FB0               	goto	u147_27
  5835  07B4  0BA8               	decfsz	??_acao+2,f
  5836  07B5  2FB0               	goto	u147_27
  5837                           
  5838                           ;TCC_1.c: 166: _delay((unsigned long)((200)*(8000000/4000.0)));
  5839  07B6  3003               	movlw	3
  5840  07B7  1283               	bcf	3,5	;RP0=0, select bank0
  5841  07B8  1303               	bcf	3,6	;RP1=0, select bank0
  5842  07B9  00A8               	movwf	??_acao+2
  5843  07BA  3008               	movlw	8
  5844  07BB  00A7               	movwf	??_acao+1
  5845  07BC  3078               	movlw	120
  5846  07BD  00A6               	movwf	??_acao
  5847  07BE                     u148_27:	
  5848  07BE  0BA6               	decfsz	??_acao,f
  5849  07BF  2FBE               	goto	u148_27
  5850  07C0  0BA7               	decfsz	??_acao+1,f
  5851  07C1  2FBE               	goto	u148_27
  5852  07C2  0BA8               	decfsz	??_acao+2,f
  5853  07C3  2FBE               	goto	u148_27
  5854                           
  5855                           ;TCC_1.c: 167: _delay((unsigned long)((200)*(8000000/4000.0)));
  5856  07C4  3003               	movlw	3
  5857  07C5  1283               	bcf	3,5	;RP0=0, select bank0
  5858  07C6  1303               	bcf	3,6	;RP1=0, select bank0
  5859  07C7  00A8               	movwf	??_acao+2
  5860  07C8  3008               	movlw	8
  5861  07C9  00A7               	movwf	??_acao+1
  5862  07CA  3078               	movlw	120
  5863  07CB  00A6               	movwf	??_acao
  5864  07CC                     u149_27:	
  5865  07CC  0BA6               	decfsz	??_acao,f
  5866  07CD  2FCC               	goto	u149_27
  5867  07CE  0BA7               	decfsz	??_acao+1,f
  5868  07CF  2FCC               	goto	u149_27
  5869  07D0  0BA8               	decfsz	??_acao+2,f
  5870  07D1  2FCC               	goto	u149_27
  5871                           
  5872                           ;TCC_1.c: 168: _delay((unsigned long)((200)*(8000000/4000.0)));
  5873  07D2  3003               	movlw	3
  5874  07D3  1283               	bcf	3,5	;RP0=0, select bank0
  5875  07D4  1303               	bcf	3,6	;RP1=0, select bank0
  5876  07D5  00A8               	movwf	??_acao+2
  5877  07D6  3008               	movlw	8
  5878  07D7  00A7               	movwf	??_acao+1
  5879  07D8  3078               	movlw	120
  5880  07D9  00A6               	movwf	??_acao
  5881  07DA                     u150_27:	
  5882  07DA  0BA6               	decfsz	??_acao,f
  5883  07DB  2FDA               	goto	u150_27
  5884  07DC  0BA7               	decfsz	??_acao+1,f
  5885  07DD  2FDA               	goto	u150_27
  5886  07DE  0BA8               	decfsz	??_acao+2,f
  5887  07DF  2FDA               	goto	u150_27
  5888                           
  5889                           ;TCC_1.c: 169: _delay((unsigned long)((200)*(8000000/4000.0)));
  5890  07E0  3003               	movlw	3
  5891  07E1  1283               	bcf	3,5	;RP0=0, select bank0
  5892  07E2  1303               	bcf	3,6	;RP1=0, select bank0
  5893  07E3  00A8               	movwf	??_acao+2
  5894  07E4  3008               	movlw	8
  5895  07E5  00A7               	movwf	??_acao+1
  5896  07E6  3078               	movlw	120
  5897  07E7  00A6               	movwf	??_acao
  5898  07E8                     u151_27:	
  5899  07E8  0BA6               	decfsz	??_acao,f
  5900  07E9  2FE8               	goto	u151_27
  5901  07EA  0BA7               	decfsz	??_acao+1,f
  5902  07EB  2FE8               	goto	u151_27
  5903  07EC  0BA8               	decfsz	??_acao+2,f
  5904  07ED  2FE8               	goto	u151_27
  5905  07EE                     i1l2316:	
  5906                           
  5907                           ;TCC_1.c: 170: }
  5908                           ;TCC_1.c: 171: INTCON=0b11011000;
  5909  07EE  30D8               	movlw	216
  5910  07EF  008B               	movwf	11	;volatile
  5911  07F0  0008               	return
  5912  07F1                     __end_of_acao:	
  5913                           
  5914                           	psect	text18
  5915  0AE7                     __ptext18:	
  5916 ;; *************** function i1_printf *****************
  5917 ;; Defined at:
  5918 ;;		line 465 in file "C:\Program Files (x86)\Microchip\xc8\v1.20\sources\common\doprnt.c"
  5919 ;; Parameters:    Size  Location     Type
  5920 ;;  printf          2    7[COMMON] PTR const unsigned char 
  5921 ;;		 -> STR_58(14), STR_57(17), STR_56(19), STR_55(32), 
  5922 ;;		 -> STR_54(35), STR_53(14), STR_52(15), STR_51(14), 
  5923 ;;		 -> STR_50(14), STR_49(13), STR_48(15), STR_47(14), 
  5924 ;;		 -> STR_46(19), STR_45(14), STR_44(15), STR_43(14), 
  5925 ;;		 -> STR_42(14), STR_41(13), STR_40(15), STR_39(14), 
  5926 ;;		 -> STR_38(19), STR_37(14), STR_36(15), STR_35(14), 
  5927 ;;		 -> STR_34(14), STR_33(13), STR_32(15), STR_31(14), 
  5928 ;;		 -> STR_30(19), STR_29(14), STR_28(15), STR_27(14), 
  5929 ;;		 -> STR_26(14), STR_25(13), STR_24(15), STR_23(14), 
  5930 ;;		 -> STR_22(19), STR_21(8), STR_20(5), STR_19(15), 
  5931 ;;		 -> STR_18(13), STR_17(20), STR_16(11), STR_15(11), 
  5932 ;;		 -> STR_14(11), STR_13(10), STR_12(10), STR_11(11), 
  5933 ;;		 -> STR_10(10), STR_9(10), STR_8(10), STR_7(10), 
  5934 ;;		 -> STR_6(10), STR_5(10), STR_4(20), STR_3(18), 
  5935 ;;		 -> STR_2(19), STR_1(14), 
  5936 ;; Auto vars:     Size  Location     Type
  5937 ;;  printf          4    0        struct .
  5938 ;;  printf          1    5[BANK0 ] char 
  5939 ;;  printf          1    4[BANK0 ] PTR void [1]
  5940 ;;		 -> ?_printf(2), 
  5941 ;;  printf          1    3[BANK0 ] unsigned char 
  5942 ;;  printf          1    0        char 
  5943 ;; Return value:  Size  Location     Type
  5944 ;;                  2    7[COMMON] int 
  5945 ;; Registers used:
  5946 ;;		wreg, fsr0l, fsr0h, status,2, status,0, btemp+1, pclath, cstack
  5947 ;; Tracked objects:
  5948 ;;		On entry : 0/0
  5949 ;;		On exit  : 0/0
  5950 ;;		Unchanged: 0/0
  5951 ;; Data sizes:     COMMON   BANK0   BANK1   BANK3   BANK2
  5952 ;;      Params:         6       0       0       0       0
  5953 ;;      Locals:         0       3       0       0       0
  5954 ;;      Temps:          0       3       0       0       0
  5955 ;;      Totals:         6       6       0       0       0
  5956 ;;Total ram usage:       12 bytes
  5957 ;; Hardware stack levels used:    1
  5958 ;; Hardware stack levels required when called:    4
  5959 ;; This function calls:
  5960 ;;		i1_putch
  5961 ;; This function is called by:
  5962 ;;		_acao
  5963 ;;		_inicializacao
  5964 ;;		_xandi
  5965 ;;		i1_menu
  5966 ;; This function uses a non-reentrant model
  5967 ;;
  5968                           
  5969                           
  5970                           ;psect for function i1_printf
  5971  0AE7                     i1_printf:	
  5972                           
  5973                           ;doprnt.c: 466: va_list ap;
  5974                           ;doprnt.c: 499: signed char c;
  5975                           ;doprnt.c: 506: signed char prec;
  5976                           ;doprnt.c: 508: unsigned char flag;
  5977                           ;doprnt.c: 527: union {
  5978                           ;doprnt.c: 528: unsigned int _val;
  5979                           ;doprnt.c: 529: struct {
  5980                           ;doprnt.c: 530: const char * _cp;
  5981                           ;doprnt.c: 531: unsigned _len;
  5982                           ;doprnt.c: 532: } _str;
  5983                           ;doprnt.c: 533: } _val;
  5984                           ;doprnt.c: 542: *ap = __va_start();
  5985                           
  5986                           ;incstack = 0
  5987 ;; hardware stack exceeded
  5988                           ; Regs used in i1_printf: [wreg-fsr0h+status,2+status,0+btemp+1+pclath+cstack]
  5989  0AE7  3079               	movlw	(?i1_printf+2)& (0+255)
  5990  0AE8  1283               	bcf	3,5	;RP0=0, select bank0
  5991  0AE9  1303               	bcf	3,6	;RP1=0, select bank0
  5992  0AEA  00A0               	movwf	??i1_printf
  5993  0AEB  0820               	movf	??i1_printf,w
  5994  0AEC  00A4               	movwf	i1printf@ap
  5995  0AED                     i1l2234:	
  5996                           ;doprnt.c: 1429: {
  5997                           
  5998                           ;doprnt.c: 545: while(c = *f++) {
  5999                           
  6000  0AED  0878               	movf	i1printf@f+1,w
  6001  0AEE  1283               	bcf	3,5	;RP0=0, select bank0
  6002  0AEF  1303               	bcf	3,6	;RP1=0, select bank0
  6003  0AF0  00A1               	movwf	??i1_printf+1
  6004  0AF1  0877               	movf	i1printf@f,w
  6005  0AF2  00A0               	movwf	??i1_printf
  6006  0AF3  3001               	movlw	1
  6007  0AF4  07F7               	addwf	i1printf@f,f
  6008  0AF5  1803               	skipnc
  6009  0AF6  0AF8               	incf	i1printf@f+1,f
  6010  0AF7  0821               	movf	??i1_printf+1,w
  6011  0AF8  00FF               	movwf	127
  6012  0AF9  0820               	movf	??i1_printf,w
  6013  0AFA  0084               	movwf	4
  6014  0AFB  120A  158A  2000   	fcall	stringtab
      +       120A  158A         
  6015  0B00  00A2               	movwf	??i1_printf+2
  6016  0B01  0822               	movf	??i1_printf+2,w
  6017  0B02  00A5               	movwf	i1printf@c
  6018  0B03  08A5               	movf	i1printf@c,f
  6019  0B04  1903               	btfsc	3,2
  6020  0B05  0008               	return
  6021                           
  6022                           ;doprnt.c: 547: if(c != '%')
  6023  0B06  0825               	movf	i1printf@c,w
  6024  0B07  3A25               	xorlw	37
  6025  0B08  1903               	skipnz
  6026  0B09  2B11               	goto	i1l2222
  6027                           
  6028                           ;doprnt.c: 549: {
  6029                           ;doprnt.c: 550: (putch(c) );
  6030  0B0A  0825               	movf	i1printf@c,w
  6031  0B0B  120A  158A  2106   	fcall	i1_putch
      +       120A  158A         
  6032                           
  6033                           ;doprnt.c: 551: continue;
  6034  0B10  2AED               	goto	i1l2234
  6035  0B11                     i1l2222:	
  6036                           
  6037                           ;doprnt.c: 552: }
  6038                           ;doprnt.c: 557: flag = 0;
  6039  0B11  1283               	bcf	3,5	;RP0=0, select bank0
  6040  0B12  1303               	bcf	3,6	;RP1=0, select bank0
  6041  0B13  01A3               	clrf	i1printf@flag
  6042                           
  6043                           ;doprnt.c: 644: switch(c = *f++) {
  6044  0B14  2B27               	goto	i1l2232
  6045  0B15                     i1l2224:	
  6046                           ;doprnt.c: 793: case 'c':
  6047                           
  6048                           ;doprnt.c: 647: goto alldone;
  6049                           
  6050                           ;doprnt.c: 646: case 0:
  6051                           
  6052                           
  6053                           ;doprnt.c: 808: c = (*(int *)__va_arg((*(int **)ap), (int)0));
  6054  0B15  0824               	movf	i1printf@ap,w
  6055  0B16  0084               	movwf	4
  6056  0B17  1383               	bcf	3,7	;select IRP bank0
  6057  0B18  0800               	movf	0,w
  6058  0B19  00A0               	movwf	??i1_printf
  6059  0B1A  0820               	movf	??i1_printf,w
  6060  0B1B  00A5               	movwf	i1printf@c
  6061  0B1C  3002               	movlw	2
  6062  0B1D  00A0               	movwf	??i1_printf
  6063  0B1E  0820               	movf	??i1_printf,w
  6064  0B1F  07A4               	addwf	i1printf@ap,f
  6065  0B20                     i1l2228:	
  6066                           ;doprnt.c: 811: default:
  6067                           
  6068                           
  6069                           ;doprnt.c: 818: (putch(c) );
  6070  0B20  0825               	movf	i1printf@c,w
  6071  0B21  120A  158A  2106   	fcall	i1_putch
      +       120A  158A         
  6072                           
  6073                           ;doprnt.c: 831: }
  6074                           
  6075                           ;doprnt.c: 819: continue;
  6076  0B26  2AED               	goto	i1l2234
  6077  0B27                     i1l2232:	
  6078  0B27  0878               	movf	i1printf@f+1,w
  6079  0B28  1283               	bcf	3,5	;RP0=0, select bank0
  6080  0B29  1303               	bcf	3,6	;RP1=0, select bank0
  6081  0B2A  00A1               	movwf	??i1_printf+1
  6082  0B2B  0877               	movf	i1printf@f,w
  6083  0B2C  00A0               	movwf	??i1_printf
  6084  0B2D  3001               	movlw	1
  6085  0B2E  07F7               	addwf	i1printf@f,f
  6086  0B2F  1803               	skipnc
  6087  0B30  0AF8               	incf	i1printf@f+1,f
  6088  0B31  0821               	movf	??i1_printf+1,w
  6089  0B32  00FF               	movwf	127
  6090  0B33  0820               	movf	??i1_printf,w
  6091  0B34  0084               	movwf	4
  6092  0B35  120A  158A  2000   	fcall	stringtab
      +       120A  158A         
  6093  0B3A  00A5               	movwf	i1printf@c
  6094                           
  6095                           ; Switch size 1, requested type "space"
  6096                           ; Number of cases is 2, Range of values is 0 to 99
  6097                           ; switch strategies available:
  6098                           ; Name         Instructions Cycles
  6099                           ; simple_byte            7     4 (average)
  6100                           ; jumptable            260     6 (fixed)
  6101                           ; rangetable           104     6 (fixed)
  6102                           ; spacedrange          206     9 (fixed)
  6103                           ; locatedrange         100     3 (fixed)
  6104                           ;	Chosen strategy is simple_byte
  6105  0B3B  3A00               	xorlw	0	; case 0
  6106  0B3C  1903               	skipnz
  6107  0B3D  2B43               	goto	i1l325
  6108  0B3E  3A63               	xorlw	99	; case 99
  6109  0B3F  1903               	skipnz
  6110  0B40  2B15               	goto	i1l2224
  6111  0B41  2B20               	goto	i1l2228
  6112  0B42  2AED               	goto	i1l2234
  6113  0B43                     i1l325:	
  6114                           ;doprnt.c: 1547: return 0;
  6115                           ;	Return value of i1_printf is never used
  6116                           
  6117                           ;doprnt.c: 1476: }
  6118                           ;doprnt.c: 1540: }
  6119                           ;doprnt.c: 1542: alldone:
  6120                           
  6121  0B43  0008               	return
  6122  0B44                     __end_ofi1_printf:	
  6123                           
  6124                           	psect	text19
  6125  0906                     __ptext19:	
  6126 ;; *************** function i1_putch *****************
  6127 ;; Defined at:
  6128 ;;		line 168 in file "../LCD_ModSauer.c"
  6129 ;; Parameters:    Size  Location     Type
  6130 ;;  putch           1    wreg     unsigned char 
  6131 ;; Auto vars:     Size  Location     Type
  6132 ;;  putch           1    6[COMMON] unsigned char 
  6133 ;; Return value:  Size  Location     Type
  6134 ;;		None               void
  6135 ;; Registers used:
  6136 ;;		wreg, fsr0l, fsr0h, status,2, status,0, pclath, cstack
  6137 ;; Tracked objects:
  6138 ;;		On entry : 0/0
  6139 ;;		On exit  : 0/0
  6140 ;;		Unchanged: 0/0
  6141 ;; Data sizes:     COMMON   BANK0   BANK1   BANK3   BANK2
  6142 ;;      Params:         0       0       0       0       0
  6143 ;;      Locals:         1       0       0       0       0
  6144 ;;      Temps:          0       0       0       0       0
  6145 ;;      Totals:         1       0       0       0       0
  6146 ;;Total ram usage:        1 bytes
  6147 ;; Hardware stack levels used:    1
  6148 ;; Hardware stack levels required when called:    3
  6149 ;; This function calls:
  6150 ;;		i1_lcd_putc
  6151 ;; This function is called by:
  6152 ;;		i1_printf
  6153 ;; This function uses a non-reentrant model
  6154 ;;
  6155                           
  6156                           
  6157                           ;psect for function i1_putch
  6158  0906                     i1_putch:	
  6159                           
  6160                           ;incstack = 0
  6161 ;; hardware stack exceeded
  6162                           ; Regs used in i1_putch: [wreg-fsr0h+status,2+status,0+pclath+cstack]
  6163                           ;i1putch@c stored from wreg
  6164  0906  00F6               	movwf	i1putch@c
  6165                           
  6166                           ;LCD_ModSauer.c: 169: lcd_putc(c);
  6167  0907  0876               	movf	i1putch@c,w
  6168  0908  120A  158A  219C   	fcall	i1_lcd_putc
  6169  090B  0008               	return
  6170  090C                     __end_ofi1_putch:	
  6171                           
  6172                           	psect	text20
  6173  099C                     __ptext20:	
  6174 ;; *************** function i1_lcd_putc *****************
  6175 ;; Defined at:
  6176 ;;		line 76 in file "../LCD_ModSauer.c"
  6177 ;; Parameters:    Size  Location     Type
  6178 ;;  lcd_putc        1    wreg     unsigned char 
  6179 ;; Auto vars:     Size  Location     Type
  6180 ;;  lcd_putc        1    5[COMMON] unsigned char 
  6181 ;; Return value:  Size  Location     Type
  6182 ;;		None               void
  6183 ;; Registers used:
  6184 ;;		wreg, fsr0l, fsr0h, status,2, status,0, pclath, cstack
  6185 ;; Tracked objects:
  6186 ;;		On entry : 0/0
  6187 ;;		On exit  : 0/0
  6188 ;;		Unchanged: 0/0
  6189 ;; Data sizes:     COMMON   BANK0   BANK1   BANK3   BANK2
  6190 ;;      Params:         0       0       0       0       0
  6191 ;;      Locals:         1       0       0       0       0
  6192 ;;      Temps:          0       0       0       0       0
  6193 ;;      Totals:         1       0       0       0       0
  6194 ;;Total ram usage:        1 bytes
  6195 ;; Hardware stack levels used:    1
  6196 ;; Hardware stack levels required when called:    2
  6197 ;; This function calls:
  6198 ;;		i1_lcd_write
  6199 ;;		i1_lcd_clear
  6200 ;;		i1_lcd_goto
  6201 ;; This function is called by:
  6202 ;;		i1_putch
  6203 ;; This function uses a non-reentrant model
  6204 ;;
  6205                           
  6206                           
  6207                           ;psect for function i1_lcd_putc
  6208  099C                     i1_lcd_putc:	
  6209                           
  6210                           ;incstack = 0
  6211 ;; hardware stack exceeded
  6212                           ; Regs used in i1_lcd_putc: [wreg-fsr0h+status,2+status,0+pclath+cstack]
  6213                           ;i1lcd_putc@c stored from wreg
  6214  099C  00F5               	movwf	i1lcd_putc@c
  6215                           
  6216                           ;LCD_ModSauer.c: 77: switch (c) {
  6217  099D  29B7               	goto	i1l2212
  6218  099E                     i1l2202:	
  6219                           ;LCD_ModSauer.c: 78: case '\f' :
  6220                           
  6221                           
  6222                           ;LCD_ModSauer.c: 80: lcd_clear();
  6223  099E  120A  158A  211E   	fcall	i1_lcd_clear
  6224                           
  6225                           ;LCD_ModSauer.c: 81: break;
  6226  09A1  0008               	return
  6227  09A2                     i1l2204:	
  6228                           ;LCD_ModSauer.c: 82: case '\n' :
  6229                           
  6230                           
  6231                           ;LCD_ModSauer.c: 83: lcd_goto(0x40);
  6232  09A2  3040               	movlw	64
  6233  09A3  120A  158A  2114   	fcall	i1_lcd_goto
  6234                           
  6235                           ;LCD_ModSauer.c: 84: break;
  6236  09A6  0008               	return
  6237  09A7                     i1l295:	
  6238                           ;LCD_ModSauer.c: 85: case '\r' :
  6239                           
  6240                           
  6241                           ;LCD_ModSauer.c: 86: RA4 = 0;
  6242  09A7  1283               	bcf	3,5	;RP0=0, select bank0
  6243  09A8  1303               	bcf	3,6	;RP1=0, select bank0
  6244  09A9  1205               	bcf	5,4	;volatile
  6245                           
  6246                           ;LCD_ModSauer.c: 87: lcd_write(0x80);
  6247  09AA  3080               	movlw	128
  6248  09AB  120A  158A  21EA   	fcall	i1_lcd_write
  6249                           
  6250                           ;LCD_ModSauer.c: 88: break;
  6251  09AE  0008               	return
  6252  09AF                     i1l296:	
  6253                           ;LCD_ModSauer.c: 89: default :
  6254                           
  6255                           
  6256                           ;LCD_ModSauer.c: 90: RA4 = 1;
  6257  09AF  1283               	bcf	3,5	;RP0=0, select bank0
  6258  09B0  1303               	bcf	3,6	;RP1=0, select bank0
  6259  09B1  1605               	bsf	5,4	;volatile
  6260                           
  6261                           ;LCD_ModSauer.c: 91: lcd_write( c );
  6262  09B2  0875               	movf	i1lcd_putc@c,w
  6263  09B3  120A  158A  21EA   	fcall	i1_lcd_write
  6264                           
  6265                           ;LCD_ModSauer.c: 93: }
  6266                           
  6267                           ;LCD_ModSauer.c: 92: break;
  6268  09B6  0008               	return
  6269  09B7                     i1l2212:	
  6270  09B7  0875               	movf	i1lcd_putc@c,w
  6271                           
  6272                           ; Switch size 1, requested type "space"
  6273                           ; Number of cases is 3, Range of values is 10 to 13
  6274                           ; switch strategies available:
  6275                           ; Name         Instructions Cycles
  6276                           ; simple_byte           10     6 (average)
  6277                           ; direct_byte           23    11 (fixed)
  6278                           ; jumptable            263     9 (fixed)
  6279                           ;	Chosen strategy is simple_byte
  6280  09B8  3A0A               	xorlw	10	; case 10
  6281  09B9  1903               	skipnz
  6282  09BA  29A2               	goto	i1l2204
  6283  09BB  3A06               	xorlw	6	; case 12
  6284  09BC  1903               	skipnz
  6285  09BD  299E               	goto	i1l2202
  6286  09BE  3A01               	xorlw	1	; case 13
  6287  09BF  1903               	skipnz
  6288  09C0  29A7               	goto	i1l295
  6289  09C1  29AF               	goto	i1l296
  6290  09C2  0008               	return
  6291  09C3                     __end_ofi1_lcd_putc:	
  6292                           
  6293                           	psect	text21
  6294  0914                     __ptext21:	
  6295 ;; *************** function i1_lcd_goto *****************
  6296 ;; Defined at:
  6297 ;;		line 103 in file "../LCD_ModSauer.c"
  6298 ;; Parameters:    Size  Location     Type
  6299 ;;  lcd_goto        1    wreg     unsigned char 
  6300 ;; Auto vars:     Size  Location     Type
  6301 ;;  lcd_goto        1    3[COMMON] unsigned char 
  6302 ;; Return value:  Size  Location     Type
  6303 ;;		None               void
  6304 ;; Registers used:
  6305 ;;		wreg, status,2, status,0, pclath, cstack
  6306 ;; Tracked objects:
  6307 ;;		On entry : 0/0
  6308 ;;		On exit  : 0/0
  6309 ;;		Unchanged: 0/0
  6310 ;; Data sizes:     COMMON   BANK0   BANK1   BANK3   BANK2
  6311 ;;      Params:         0       0       0       0       0
  6312 ;;      Locals:         1       0       0       0       0
  6313 ;;      Temps:          0       0       0       0       0
  6314 ;;      Totals:         1       0       0       0       0
  6315 ;;Total ram usage:        1 bytes
  6316 ;; Hardware stack levels used:    1
  6317 ;; Hardware stack levels required when called:    1
  6318 ;; This function calls:
  6319 ;;		i1_lcd_write
  6320 ;; This function is called by:
  6321 ;;		i1_lcd_putc
  6322 ;; This function uses a non-reentrant model
  6323 ;;
  6324                           
  6325                           
  6326                           ;psect for function i1_lcd_goto
  6327  0914                     i1_lcd_goto:	
  6328                           
  6329                           ;incstack = 0
  6330 ;; hardware stack exceeded
  6331                           ; Regs used in i1_lcd_goto: [wreg+status,2+status,0+pclath+cstack]
  6332                           ;i1lcd_goto@pos stored from wreg
  6333  0914  00F3               	movwf	i1lcd_goto@pos
  6334                           
  6335                           ;LCD_ModSauer.c: 104: RA4 = 0;
  6336  0915  1283               	bcf	3,5	;RP0=0, select bank0
  6337  0916  1303               	bcf	3,6	;RP1=0, select bank0
  6338  0917  1205               	bcf	5,4	;volatile
  6339                           
  6340                           ;LCD_ModSauer.c: 105: lcd_write(0x80+pos);
  6341  0918  0873               	movf	i1lcd_goto@pos,w
  6342  0919  3E80               	addlw	128
  6343  091A  120A  158A  21EA   	fcall	i1_lcd_write
  6344  091D  0008               	return
  6345  091E                     __end_ofi1_lcd_goto:	
  6346                           
  6347                           	psect	text22
  6348  091E                     __ptext22:	
  6349 ;; *************** function i1_lcd_clear *****************
  6350 ;; Defined at:
  6351 ;;		line 56 in file "../LCD_ModSauer.c"
  6352 ;; Parameters:    Size  Location     Type
  6353 ;;		None
  6354 ;; Auto vars:     Size  Location     Type
  6355 ;;		None
  6356 ;; Return value:  Size  Location     Type
  6357 ;;		None               void
  6358 ;; Registers used:
  6359 ;;		wreg, status,2, status,0, pclath, cstack
  6360 ;; Tracked objects:
  6361 ;;		On entry : 0/0
  6362 ;;		On exit  : 0/0
  6363 ;;		Unchanged: 0/0
  6364 ;; Data sizes:     COMMON   BANK0   BANK1   BANK3   BANK2
  6365 ;;      Params:         0       0       0       0       0
  6366 ;;      Locals:         0       0       0       0       0
  6367 ;;      Temps:          2       0       0       0       0
  6368 ;;      Totals:         2       0       0       0       0
  6369 ;;Total ram usage:        2 bytes
  6370 ;; Hardware stack levels used:    1
  6371 ;; Hardware stack levels required when called:    1
  6372 ;; This function calls:
  6373 ;;		i1_lcd_write
  6374 ;; This function is called by:
  6375 ;;		_acao
  6376 ;;		_inicializacao
  6377 ;;		_xandi
  6378 ;;		i1_menu
  6379 ;;		i1_lcd_putc
  6380 ;; This function uses a non-reentrant model
  6381 ;;
  6382                           
  6383                           
  6384                           ;psect for function i1_lcd_clear
  6385  091E                     i1_lcd_clear:	
  6386                           
  6387                           ;LCD_ModSauer.c: 57: RA4 = 0;
  6388                           
  6389                           ;incstack = 0
  6390 ;; hardware stack exceeded
  6391                           ; Regs used in i1_lcd_clear: [wreg+status,2+status,0+pclath+cstack]
  6392  091E  1283               	bcf	3,5	;RP0=0, select bank0
  6393  091F  1303               	bcf	3,6	;RP1=0, select bank0
  6394  0920  1205               	bcf	5,4	;volatile
  6395                           
  6396                           ;LCD_ModSauer.c: 58: _delay((unsigned long)((40)*(8000000/4000000.0)));
  6397  0921  301A               	movlw	26
  6398  0922  00F3               	movwf	??i1_lcd_clear
  6399  0923                     u152_27:	
  6400  0923  0BF3               	decfsz	??i1_lcd_clear,f
  6401  0924  2923               	goto	u152_27
  6402  0925  0000               	nop
  6403                           
  6404                           ;LCD_ModSauer.c: 59: lcd_write(0x1);
  6405  0926  3001               	movlw	1
  6406  0927  120A  158A  21EA   	fcall	i1_lcd_write
      +       120A  158A         
  6407                           
  6408                           ;LCD_ModSauer.c: 60: _delay((unsigned long)((2)*(8000000/4000.0)));
  6409  092C  3006               	movlw	6
  6410  092D  00F4               	movwf	??i1_lcd_clear+1
  6411  092E  3030               	movlw	48
  6412  092F  00F3               	movwf	??i1_lcd_clear
  6413  0930                     u153_27:	
  6414  0930  0BF3               	decfsz	??i1_lcd_clear,f
  6415  0931  2930               	goto	u153_27
  6416  0932  0BF4               	decfsz	??i1_lcd_clear+1,f
  6417  0933  2930               	goto	u153_27
  6418  0934  0000               	nop
  6419  0935  0008               	return
  6420  0936                     __end_ofi1_lcd_clear:	
  6421                           
  6422                           	psect	text23
  6423  09EA                     __ptext23:	
  6424 ;; *************** function i1_lcd_write *****************
  6425 ;; Defined at:
  6426 ;;		line 39 in file "../LCD_ModSauer.c"
  6427 ;; Parameters:    Size  Location     Type
  6428 ;;  lcd_write       1    wreg     unsigned char 
  6429 ;; Auto vars:     Size  Location     Type
  6430 ;;  lcd_write       1    2[COMMON] unsigned char 
  6431 ;; Return value:  Size  Location     Type
  6432 ;;		None               void
  6433 ;; Registers used:
  6434 ;;		wreg, status,2, status,0
  6435 ;; Tracked objects:
  6436 ;;		On entry : 0/0
  6437 ;;		On exit  : 0/0
  6438 ;;		Unchanged: 0/0
  6439 ;; Data sizes:     COMMON   BANK0   BANK1   BANK3   BANK2
  6440 ;;      Params:         0       0       0       0       0
  6441 ;;      Locals:         1       0       0       0       0
  6442 ;;      Temps:          2       0       0       0       0
  6443 ;;      Totals:         3       0       0       0       0
  6444 ;;Total ram usage:        3 bytes
  6445 ;; Hardware stack levels used:    1
  6446 ;; This function calls:
  6447 ;;		Nothing
  6448 ;; This function is called by:
  6449 ;;		i1_lcd_clear
  6450 ;;		i1_lcd_putc
  6451 ;;		i1_lcd_goto
  6452 ;; This function uses a non-reentrant model
  6453 ;;
  6454                           
  6455                           
  6456                           ;psect for function i1_lcd_write
  6457  09EA                     i1_lcd_write:	
  6458                           
  6459                           ;incstack = 0
  6460 ;; hardware stack exceeded
  6461                           ; Regs used in i1_lcd_write: [wreg+status,2+status,0]
  6462                           ;i1lcd_write@c stored from wreg
  6463  09EA  00F2               	movwf	i1lcd_write@c
  6464                           
  6465                           ;LCD_ModSauer.c: 40: _delay((unsigned long)((40)*(8000000/4000000.0)));
  6466  09EB  301A               	movlw	26
  6467  09EC  00F0               	movwf	??i1_lcd_write
  6468  09ED                     u154_27:	
  6469  09ED  0BF0               	decfsz	??i1_lcd_write,f
  6470  09EE  29ED               	goto	u154_27
  6471  09EF  0000               	nop
  6472                           
  6473                           ;LCD_ModSauer.c: 41: PORTA &= 0xF0;
  6474  09F0  30F0               	movlw	240
  6475  09F1  00F0               	movwf	??i1_lcd_write
  6476  09F2  0870               	movf	??i1_lcd_write,w
  6477  09F3  1283               	bcf	3,5	;RP0=0, select bank0
  6478  09F4  1303               	bcf	3,6	;RP1=0, select bank0
  6479  09F5  0585               	andwf	5,f	;volatile
  6480                           
  6481                           ;LCD_ModSauer.c: 42: PORTA |= ( ( c >> 4 ) & 0x0F );
  6482  09F6  0872               	movf	i1lcd_write@c,w
  6483  09F7  00F0               	movwf	??i1_lcd_write
  6484  09F8  3004               	movlw	4
  6485  09F9                     u66_25:	
  6486  09F9  1003               	clrc
  6487  09FA  0CF0               	rrf	??i1_lcd_write,f
  6488  09FB  3EFF               	addlw	-1
  6489  09FC  1D03               	skipz
  6490  09FD  29F9               	goto	u66_25
  6491  09FE  0870               	movf	??i1_lcd_write,w
  6492  09FF  390F               	andlw	15
  6493  0A00  00F1               	movwf	??i1_lcd_write+1
  6494  0A01  0871               	movf	??i1_lcd_write+1,w
  6495  0A02  0485               	iorwf	5,f	;volatile
  6496                           
  6497                           ;LCD_ModSauer.c: 43: ((RA5 = 1),(RA5=0));
  6498  0A03  1685               	bsf	5,5	;volatile
  6499  0A04  1285               	bcf	5,5	;volatile
  6500                           
  6501                           ;LCD_ModSauer.c: 44: PORTA &=0xF0;
  6502  0A05  30F0               	movlw	240
  6503  0A06  00F0               	movwf	??i1_lcd_write
  6504  0A07  0870               	movf	??i1_lcd_write,w
  6505  0A08  0585               	andwf	5,f	;volatile
  6506                           
  6507                           ;LCD_ModSauer.c: 45: PORTA |= ( c & 0x0F );
  6508  0A09  0872               	movf	i1lcd_write@c,w
  6509  0A0A  390F               	andlw	15
  6510  0A0B  00F0               	movwf	??i1_lcd_write
  6511  0A0C  0870               	movf	??i1_lcd_write,w
  6512  0A0D  0485               	iorwf	5,f	;volatile
  6513                           
  6514                           ;LCD_ModSauer.c: 46: ((RA5 = 1),(RA5=0));
  6515  0A0E  1685               	bsf	5,5	;volatile
  6516  0A0F  1285               	bcf	5,5	;volatile
  6517                           
  6518                           ;LCD_ModSauer.c: 47: _delay((unsigned long)((40)*(8000000/4000000.0)));
  6519  0A10  301A               	movlw	26
  6520  0A11  00F0               	movwf	??i1_lcd_write
  6521  0A12                     u155_27:	
  6522  0A12  0BF0               	decfsz	??i1_lcd_write,f
  6523  0A13  2A12               	goto	u155_27
  6524  0A14  0000               	nop
  6525  0A15  0008               	return
  6526  0A16                     __end_ofi1_lcd_write:	
  6527                           
  6528                           	psect	text24
  6529  0936                     __ptext24:	
  6530 ;; *************** function i1_spi_read *****************
  6531 ;; Defined at:
  6532 ;;		line 65 in file "TCC_1.c"
  6533 ;; Parameters:    Size  Location     Type
  6534 ;;  spi_read        1    wreg     unsigned char 
  6535 ;; Auto vars:     Size  Location     Type
  6536 ;;  spi_read        1    1[COMMON] unsigned char 
  6537 ;;  spi_read        1    2[COMMON] unsigned char 
  6538 ;; Return value:  Size  Location     Type
  6539 ;;                  1    wreg      unsigned char 
  6540 ;; Registers used:
  6541 ;;		wreg
  6542 ;; Tracked objects:
  6543 ;;		On entry : 0/0
  6544 ;;		On exit  : 0/0
  6545 ;;		Unchanged: 0/0
  6546 ;; Data sizes:     COMMON   BANK0   BANK1   BANK3   BANK2
  6547 ;;      Params:         0       0       0       0       0
  6548 ;;      Locals:         2       0       0       0       0
  6549 ;;      Temps:          1       0       0       0       0
  6550 ;;      Totals:         3       0       0       0       0
  6551 ;;Total ram usage:        3 bytes
  6552 ;; Hardware stack levels used:    1
  6553 ;; This function calls:
  6554 ;;		Nothing
  6555 ;; This function is called by:
  6556 ;;		_acao
  6557 ;;		_xandi
  6558 ;; This function uses a non-reentrant model
  6559 ;;
  6560                           
  6561                           
  6562                           ;psect for function i1_spi_read
  6563  0936                     i1_spi_read:	
  6564                           
  6565                           ;incstack = 0
  6566 ;; hardware stack exceeded
  6567                           ; Regs used in i1_spi_read: [wreg]
  6568                           ;i1spi_read@dado stored from wreg
  6569  0936  00F1               	movwf	i1spi_read@dado
  6570                           
  6571                           ;TCC_1.c: 66: unsigned char rec=0xFF;
  6572  0937  30FF               	movlw	255
  6573  0938  00F0               	movwf	??i1_spi_read
  6574  0939  0870               	movf	??i1_spi_read,w
  6575  093A  00F2               	movwf	i1spi_read@rec
  6576                           
  6577                           ;TCC_1.c: 67: SSPEN=1;
  6578  093B  1283               	bcf	3,5	;RP0=0, select bank0
  6579  093C  1303               	bcf	3,6	;RP1=0, select bank0
  6580  093D  1694               	bsf	20,5	;volatile
  6581                           
  6582                           ;TCC_1.c: 68: RC6=0;
  6583  093E  1307               	bcf	7,6	;volatile
  6584                           
  6585                           ;TCC_1.c: 69: SSPBUF=dado;
  6586  093F  0871               	movf	i1spi_read@dado,w
  6587  0940  0093               	movwf	19	;volatile
  6588  0941                     i1l116:	
  6589                           ;TCC_1.c: 70: while(!BF);
  6590                           
  6591  0941  1683               	bsf	3,5	;RP0=1, select bank1
  6592  0942  1303               	bcf	3,6	;RP1=0, select bank1
  6593  0943  1C14               	btfss	20,0	;volatile
  6594  0944  2941               	goto	i1l116
  6595                           
  6596                           ;TCC_1.c: 71: rec=SSPBUF;
  6597  0945  1283               	bcf	3,5	;RP0=0, select bank0
  6598  0946  1303               	bcf	3,6	;RP1=0, select bank0
  6599  0947  0813               	movf	19,w	;volatile
  6600  0948  00F0               	movwf	??i1_spi_read
  6601  0949  0870               	movf	??i1_spi_read,w
  6602  094A  00F2               	movwf	i1spi_read@rec
  6603                           
  6604                           ;TCC_1.c: 72: RC6=1;
  6605  094B  1707               	bsf	7,6	;volatile
  6606                           
  6607                           ;TCC_1.c: 73: SSPEN=0;
  6608  094C  1294               	bcf	20,5	;volatile
  6609                           
  6610                           ;TCC_1.c: 74: return(rec);
  6611  094D  0872               	movf	i1spi_read@rec,w
  6612  094E  0008               	return
  6613  094F                     __end_ofi1_spi_read:	
  6614  007E                     btemp	set	126	;btemp
  6615  007E                     wtemp0	set	126


Data Sizes:
    Strings     711
    Constant    0
    Data        3
    BSS         5
    Persistent  0
    Stack       0

Auto Spaces:
    Space          Size  Autos    Used
    COMMON           14     14      14
    BANK0            80     39      48
    BANK1            80      0       0
    BANK3            96      0       0
    BANK2            96      0       0

Pointer List with Targets:

    printf@f	PTR const unsigned char  size(2) Largest target is 35
		 -> STR_58(CODE[14]), STR_57(CODE[17]), STR_56(CODE[19]), STR_55(CODE[32]), 
		 -> STR_54(CODE[35]), STR_53(CODE[14]), STR_52(CODE[15]), STR_51(CODE[14]), 
		 -> STR_50(CODE[14]), STR_49(CODE[13]), STR_48(CODE[15]), STR_47(CODE[14]), 
		 -> STR_46(CODE[19]), STR_45(CODE[14]), STR_44(CODE[15]), STR_43(CODE[14]), 
		 -> STR_42(CODE[14]), STR_41(CODE[13]), STR_40(CODE[15]), STR_39(CODE[14]), 
		 -> STR_38(CODE[19]), STR_37(CODE[14]), STR_36(CODE[15]), STR_35(CODE[14]), 
		 -> STR_34(CODE[14]), STR_33(CODE[13]), STR_32(CODE[15]), STR_31(CODE[14]), 
		 -> STR_30(CODE[19]), STR_29(CODE[14]), STR_28(CODE[15]), STR_27(CODE[14]), 
		 -> STR_26(CODE[14]), STR_25(CODE[13]), STR_24(CODE[15]), STR_23(CODE[14]), 
		 -> STR_22(CODE[19]), STR_21(CODE[8]), STR_20(CODE[5]), STR_19(CODE[15]), 
		 -> STR_18(CODE[13]), STR_17(CODE[20]), STR_16(CODE[11]), STR_15(CODE[11]), 
		 -> STR_14(CODE[11]), STR_13(CODE[10]), STR_12(CODE[10]), STR_11(CODE[11]), 
		 -> STR_10(CODE[10]), STR_9(CODE[10]), STR_8(CODE[10]), STR_7(CODE[10]), 
		 -> STR_6(CODE[10]), STR_5(CODE[10]), STR_4(CODE[20]), STR_3(CODE[18]), 
		 -> STR_2(CODE[19]), STR_1(CODE[14]), 

    printf@ap	PTR void [1] size(1) Largest target is 2
		 -> ?_printf(BANK0[2]), 

    S198$_cp	PTR const unsigned char  size(1) Largest target is 0

    _val._str._cp	PTR const unsigned char  size(1) Largest target is 0


Critical Paths under _main in COMMON

    None.

Critical Paths under _xandi in COMMON

    _xandi->i1_menu
    i1_menu->i1_printf
    _inicializacao->i1_printf
    _acao->i1_printf
    i1_printf->i1_putch
    i1_putch->i1_lcd_putc
    i1_lcd_putc->i1_lcd_clear
    i1_lcd_goto->i1_lcd_write
    i1_lcd_clear->i1_lcd_write

Critical Paths under _main in BANK0

    _main->_principal
    _lcd_init->_lcd_clear
    _principal->_menu
    _menu->_printf
    _printf->_putch
    _putch->_lcd_putc
    _lcd_putc->_lcd_clear
    _lcd_goto->_lcd_write
    _lcd_clear->_lcd_write

Critical Paths under _xandi in BANK0

    _xandi->_acao
    _xandi->_inicializacao
    i1_menu->i1_printf
    _inicializacao->i1_printf
    _acao->i1_printf

Critical Paths under _main in BANK1

    None.

Critical Paths under _xandi in BANK1

    None.

Critical Paths under _main in BANK3

    None.

Critical Paths under _xandi in BANK3

    None.

Critical Paths under _main in BANK2

    None.

Critical Paths under _xandi in BANK2

    None.

Call Graph Tables:

 ---------------------------------------------------------------------------------
 (Depth) Function   	        Calls       Base Space   Used Autos Params    Refs
 ---------------------------------------------------------------------------------
 (0) _main                                                 0     0      0     961
                           _spi_init
                          _principal
                           _lcd_init
 ---------------------------------------------------------------------------------
 (1) _lcd_init                                             3     3      0     111
                                             21 BANK0      3     3      0
                          _lcd_clear
                          _lcd_write
 ---------------------------------------------------------------------------------
 (1) _principal                                            3     3      0     850
                                             36 BANK0      3     3      0
                           _spi_read
                          _lcd_clear
                             _printf
                               _menu
                                _bip
 ---------------------------------------------------------------------------------
 (2) _bip                                                  3     3      0       0
                                             16 BANK0      3     3      0
 ---------------------------------------------------------------------------------
 (2) _menu                                                 1     1      0     402
                                             35 BANK0      1     1      0
                          _lcd_clear
                             _printf
 ---------------------------------------------------------------------------------
 (3) _printf                                              17    11      6     358
                                             23 BANK0     12     6      6
                              _putch
 ---------------------------------------------------------------------------------
 (4) _putch                                                1     1      0     220
                                             22 BANK0      1     1      0
                           _lcd_putc
 ---------------------------------------------------------------------------------
 (5) _lcd_putc                                             1     1      0     198
                                             21 BANK0      1     1      0
                          _lcd_clear
                          _lcd_write
                           _lcd_goto
 ---------------------------------------------------------------------------------
 (6) _lcd_goto                                             1     1      0      66
                                             19 BANK0      1     1      0
                          _lcd_write
 ---------------------------------------------------------------------------------
 (2) _lcd_clear                                            2     2      0      44
                                             19 BANK0      2     2      0
                          _lcd_write
 ---------------------------------------------------------------------------------
 (2) _lcd_write                                            3     3      0      44
                                             16 BANK0      3     3      0
 ---------------------------------------------------------------------------------
 (2) _spi_read                                             3     3      0      46
                                             16 BANK0      3     3      0
 ---------------------------------------------------------------------------------
 (1) _spi_init                                             0     0      0       0
 ---------------------------------------------------------------------------------
 Estimated maximum stack depth 6
 ---------------------------------------------------------------------------------
 (Depth) Function   	        Calls       Base Space   Used Autos Params    Refs
 ---------------------------------------------------------------------------------
 (8) _xandi                                                7     7      0    5604
                                              9 BANK0      7     7      0
                               _acao
                      _inicializacao
                         i1_spi_read
                             i1_menu
                              i1_bip
                        i1_lcd_clear
                           i1_printf
 ---------------------------------------------------------------------------------
 (9) i1_bip                                                3     3      0       0
                                              0 COMMON     3     3      0
 ---------------------------------------------------------------------------------
 (9) i1_menu                                               1     1      0    1326
                                             13 COMMON     1     1      0
                        i1_lcd_clear
                           i1_printf
 ---------------------------------------------------------------------------------
 (9) _inicializacao                                        3     3      0    1326
                                              6 BANK0      3     3      0
                        i1_lcd_clear
                           i1_printf
 ---------------------------------------------------------------------------------
 (9) _acao                                                 3     3      0    1476
                                              6 BANK0      3     3      0
                         i1_spi_read
                        i1_lcd_clear
                           i1_printf
 ---------------------------------------------------------------------------------
 (9) i1_printf                                            17    11      6    1180
                                              7 COMMON     6     0      6
                                              0 BANK0      6     6      0
                            i1_putch
 ---------------------------------------------------------------------------------
 (10) i1_putch                                             1     1      0     730
                                              6 COMMON     1     1      0
                         i1_lcd_putc
 ---------------------------------------------------------------------------------
 (11) i1_lcd_putc                                          1     1      0     657
                                              5 COMMON     1     1      0
                        i1_lcd_write
                        i1_lcd_clear
                         i1_lcd_goto
 ---------------------------------------------------------------------------------
 (12) i1_lcd_goto                                          1     1      0     219
                                              3 COMMON     1     1      0
                        i1_lcd_write
 ---------------------------------------------------------------------------------
 (12) i1_lcd_clear                                         2     2      0     146
                                              3 COMMON     2     2      0
                        i1_lcd_write
 ---------------------------------------------------------------------------------
 (13) i1_lcd_write                                         3     3      0     146
                                              0 COMMON     3     3      0
 ---------------------------------------------------------------------------------
 (9) i1_spi_read                                           3     3      0     150
                                              0 COMMON     3     3      0
 ---------------------------------------------------------------------------------
 Estimated maximum stack depth 13
 ---------------------------------------------------------------------------------

 Call Graph Graphs:

 _main (ROOT)
   _spi_init
   _principal
     _spi_read
     _lcd_clear
       _lcd_write
     _printf
       _putch
         _lcd_putc
           _lcd_clear
             _lcd_write
           _lcd_write
           _lcd_goto
             _lcd_write
     _menu
       _lcd_clear
         _lcd_write
       _printf
         _putch
           _lcd_putc
             _lcd_clear
               _lcd_write
             _lcd_write
             _lcd_goto
               _lcd_write
     _bip
   _lcd_init
     _lcd_clear
       _lcd_write
     _lcd_write

 _xandi (ROOT)
   _acao
     i1_spi_read
     i1_lcd_clear
       i1_lcd_write
     i1_printf
       i1_putch
         i1_lcd_putc
           i1_lcd_write
           i1_lcd_clear
             i1_lcd_write
           i1_lcd_goto
             i1_lcd_write
   _inicializacao
     i1_lcd_clear
       i1_lcd_write
     i1_printf
       i1_putch
         i1_lcd_putc
           i1_lcd_write
           i1_lcd_clear
             i1_lcd_write
           i1_lcd_goto
             i1_lcd_write
   i1_spi_read
   i1_menu
     i1_lcd_clear
       i1_lcd_write
     i1_printf
       i1_putch
         i1_lcd_putc
           i1_lcd_write
           i1_lcd_clear
             i1_lcd_write
           i1_lcd_goto
             i1_lcd_write
   i1_bip
   i1_lcd_clear
     i1_lcd_write
   i1_printf
     i1_putch
       i1_lcd_putc
         i1_lcd_write
         i1_lcd_clear
           i1_lcd_write
         i1_lcd_goto
           i1_lcd_write

 Address spaces:
Name               Size   Autos  Total    Cost      Usage
BANK3               60      0       0       9        0.0%
BITBANK3            60      0       0       8        0.0%
SFR3                 0      0       0       4        0.0%
BITSFR3              0      0       0       4        0.0%
BANK2               60      0       0      11        0.0%
BITBANK2            60      0       0      10        0.0%
SFR2                 0      0       0       5        0.0%
BITSFR2              0      0       0       5        0.0%
BANK1               50      0       0       7        0.0%
BITBANK1            50      0       0       6        0.0%
SFR1                 0      0       0       2        0.0%
BITSFR1              0      0       0       2        0.0%
BANK0               50     27      30       5       60.0%
BITBANK0            50      0       1       4        1.3%
SFR0                 0      0       0       1        0.0%
BITSFR0              0      0       0       1        0.0%
COMMON               E      E       E       1      100.0%
BITCOMMON            E      0       0       0        0.0%
CODE                 0      0       0       0        0.0%
DATA                 0      0      53      12        0.0%
ABS                  0      0      3E       3        0.0%
NULL                 0      0       0       0        0.0%
STACK                0      0      15       2        0.0%
EEDATA             100      0       0       0        0.0%


Microchip Technology PIC Macro Assembler V1.20 build 52243 
Symbol Table                                                                                   Fri Nov 08 13:49:56 2013

                       pc 0002               __CFG_CP$OFF 0000                        _BF 04A0  
                      _ON 0238                        _oi 023A                        _ok 004F  
                      fsr 0004                       l200 0188                       l201 0204  
                     l116 095A                       l214 0250                       l215 02C3  
                     l170 0015                       l228 030F                       l325 03F1  
                     l173 007D                       l186 00C9                       l187 013C  
                     l295 09D0                       l296 09D6                       _RB1 0031  
                     _RC0 0038                       _RB2 0032                       _RA4 002C  
                     _RC1 0039                       _RA5 002D                       _RB7 0037  
                     _RC6 003E                       _PR2 0092              __CFG_CPD$OFF 0000  
                     u635 0A27                       u565 019B                       u595 0322  
                     u937 0BCF                       u947 0BDD                       u957 0BE8  
                     u967 0BF0                       u977 0C02                       u987 0C0E  
                     u997 0C19                       _bip 0A74                       _rec 023B  
                     fsr0 0004                       indf 0000               lcd_goto@pos 0033  
              i1_lcd_goto 0914                i1_lcd_putc 099C              __CFG_LVP$OFF 0000  
                    l2004 0389                      l2130 09CB                      l2128 09C7  
                    l2138 09DC                      l2058 0AE1                      ?_bip 0070  
                    l1800 0DF5                      l1802 0DFF                      l1812 0E35  
                    l1804 0E09                      l1814 0E3F                      l1806 0E13  
                    l1822 0E59                      l1920 01B4                      l1762 03BF  
                    l1930 01F0                      l1922 01C0                      l1850 0039  
                    l1764 03C3                      l1772 03D5                      l1932 01FC  
                    l1924 01CC                      l1860 0075                      l1852 0045  
                    l1774 039B                      l1790 0DC3                      l1782 0D9B  
                    l1934 0203                      l1926 01D8                      l1918 01A8  
                    l1862 007C                      l1854 0051                      l1846 0021  
                    l1768 03CE                      l1792 0DCD                      l1784 0DA5  
                    l1960 028B                      l1928 01E4                      l1856 005D  
                    l1848 002D                      l1794 0DD7                      l1786 0DAF  
                    l1970 02C2                      l1962 0297                      l1954 0267  
                    l1890 0110                      l1882 00E0                      l1858 0069  
                    l1796 0DE1                      l1788 0DB9                      l1964 02A3  
                    l1956 0273                      l1892 011C                      l1884 00EC  
                    l1798 0DEB                      l1990 0350                      l1966 02AF  
                    l1958 027F                      l1894 0128                      l1886 00F8  
                    l1968 02BB                      l1896 0134                      l1888 0104  
                    l1898 013B                      l1996 0373                      STR_1 0514  
                    STR_2 0457                      STR_3 046A                      STR_4 0443  
                    STR_5 066F                      STR_6 0679                      STR_7 068D  
                    STR_8 06B5                      STR_9 0683                      u1007 0C25  
                    u1017 0087                      u1107 02CD                      u1027 00A9  
                    u1117 02EF                      u1037 00D0                      u1207 097C  
                    u1127 0316                      u1047 0146                      u1217 0A1B  
                    u1137 034B                      u1057 0168                      u1227 0A40  
                    u1147 036E                      u1067 018F                      _IOCB 0096  
                    u1157 0A7D                      u1077 020E                      u1167 0A8B  
                    u1087 0230                      u1177 0A99                      u1097 0257  
                    u1187 0D97                      u1197 096D                      _INTE 005C  
                    _INTF 0059                      _RBIE 005B                      _RBIF 0058  
                    _TMR1 000E              __CFG_WRT$OFF 0000                      _acao 06C7  
                    _cont 0048                      _main 0AA4                      _menu 0D7B  
            spi_read@dado 0031                      btemp 007E                      start 0012  
           __CFG_IESO$OFF 0000           __end_ofi1_putch 090C               i1_lcd_clear 091E  
              i1_spi_read 0936             i1spi_read@rec 0072             __CFG_MCLRE$ON 0000  
             i1_lcd_write 09EA                     ??_bip 0030                     ?_acao 0070  
                   ?_main 0070                     ?_menu 0070                     STR_10 06AB  
                   STR_11 0643                     STR_20 06C2                     STR_12 0697  
                   STR_21 06BF                     STR_13 06A1                     STR_30 0457  
                   STR_22 0457                     STR_14 0664                     STR_15 064E  
                   STR_31 0530                     STR_23 0522                     STR_16 0659  
                   STR_40 04AB                     STR_32 049C                     STR_24 048D  
                   STR_17 0443                     STR_41 061C                     STR_33 060F  
                   STR_25 0602             __CFG_WDTE$OFF 0000                     STR_18 0636  
                   STR_50 0584                     STR_42 0576                     STR_34 0568  
                   STR_26 055A                     STR_51 05BC                     STR_43 05AE  
                   STR_35 05A0                     STR_27 0592                     STR_19 0505  
                   STR_52 04F6                     STR_44 04E7                     STR_36 04D8  
                   STR_28 04C9                     STR_53 05F4                     STR_45 05E6  
                   STR_37 05D8                     STR_29 05CA                     STR_46 0457  
                   STR_38 0457                     STR_54 0400                     STR_47 054C  
                   STR_39 053E                     STR_55 0423                     STR_56 0457  
                   STR_48 04BA                     STR_49 0629                     STR_57 047C  
                   STR_58 0514                     _ANSEL 0188                     _T1CON 0010  
                   _T2CON 0012                     i1l116 0941                     i1l142 0781  
                   i1l127 0763                     i1l241 0EB5                     i1l242 0FF4  
                   i1l139 06F6                     i1l325 0B43                     i1l295 09A7  
                   i1l296 09AF                     _PORTA 0005                     _PORTB 0006  
  __size_of_inicializacao 007F                     _TRISA 0085                     _TRISB 0086  
                   _TRISC 0087                     _SSPEN 00A5                     u66_25 09F9  
                   i1_bip 0A44             __CFG_PWRTE$ON 0000            __CFG_FCMEN$OFF 0000  
                   _enter 0239                     _xandi 0E88                     _putch 090C  
          __CFG_BOREN$OFF 0000                     pclath 000A                     status 0003  
                   wtemp0 007E          __end_ofi1_printf 0B44            i1spi_read@dado 0071  
              i1printf@ap 0024           __initialization 0982              __end_of_acao 07F1  
            __end_of_main 0AE7              __end_of_menu 0E88               i1lcd_putc@c 0075  
                  ??_acao 0026                    ??_main 0047                    ??_menu 0043  
                  ?i1_bip 0070               ?i1_lcd_goto 0070               ?i1_lcd_putc 0070  
                  ?_xandi 0070                    ?_putch 0070                    _ANSELH 0189  
                  i1l2202 099E                    i1l2204 09A2                    i1l2212 09B7  
                  i1l2222 0B11                    i1l2224 0B15                    i1l2232 0B27  
                  i1l2240 06DC                    i1l2234 0AED                    i1l2250 06E8  
                  i1l2242 06E0                    i1l2228 0B20                    i1l2316 07EE  
                  i1l2260 06F2                    i1l2252 06EA                    i1l2244 06E2  
                  i1l2262 06F4                    i1l2254 06EC                    i1l2246 06E4  
                  i1l2350 0CD0                    i1l2342 0CB0                    i1l2256 06EE  
                  i1l2248 06E6                    i1l2360 0CF8                    i1l2352 0CD8  
                  i1l2344 0CB8                    i1l2520 0FAB                    i1l2258 06F0  
                  i1l2362 0D00                    i1l2354 0CE0                    i1l2346 0CC0  
                  i1l2426 0EBC                    i1l2434 0ECA                    i1l2284 0730  
                  i1l2372 0D2E                    i1l2364 0D08                    i1l2356 0CE8  
                  i1l2348 0CC8                    i1l2460 0EF8                    i1l2374 0D36  
                  i1l2366 0D10                    i1l2358 0CF0                    i1l2382 0D4C  
                  i1l2518 0FA9                    i1l2454 0EEC                    i1l2288 0735  
                  i1l2464 0EFF                    i1l2492 0F33                    u130_27 0F9E  
                  u131_27 0FDB                    u123_27 0E90                    u140_27 0B99  
                  u132_27 0FE9                    u124_27 0ED6                    u141_27 0BA8  
                  u133_27 0A4D                    u125_27 0F52                    u150_27 07DA  
                  u142_27 0BB7                    u134_27 0A5B                    u126_27 0F66  
                  u151_27 07E8                    u143_27 06D4                    u135_27 0A69  
                  u127_27 0F74                    u152_27 0923                    u144_27 0711  
                  u136_27 0CAC                    u128_27 0F82                    _INTCON 000B  
                  u153_27 0930                    u145_27 071F                    u137_27 0B5E  
                  u129_27 0F90                    u154_27 09ED                    u146_27 079C  
                  u138_27 0B6D                    u155_27 0A12                    u147_27 07B0  
                  u139_27 0B7C                    u148_27 07BE                    u149_27 07CC  
                  _OSCCON 008F                 ??i1_putch 0076                    _TMR1IE 0460  
                  _TMR1IF 0060                    _TMR2IE 0461                    _TMR2IF 0061  
                  _TMR1ON 0080                    _TMR2ON 0092                    _TRISC3 043B  
                  _TRISC5 043D                    _SSPCON 0014                    _SSPBUF 0013  
                  i1_menu 0C94             _inicializacao 0B44               ?i1_spi_read 0070  
        __end_of_lcd_init 0C94          __end_of_lcd_goto 03FC          __end_of_lcd_putc 09EA  
                  _buffer 004E                    _printf 0395                    saved_w 007E  
        __end_of_spi_init 07FF          __end_of_spi_read 0968                    putch@c 0036  
 __end_of__initialization 0998            ?_inicializacao 0070             __end_ofi1_bip 0A74  
          __pcstackCOMMON 0070       __size_ofi1_lcd_goto 000A              __pidataBANK0 03FC  
     __size_ofi1_lcd_putc 0027             __end_of_xandi 1000             __end_of_putch 0914  
                 ??i1_bip 0070        __size_of_lcd_clear 001A                 ?i1_printf 0077  
            i1lcd_write@c 0072       __size_ofi1_spi_read 0019        __size_of_lcd_write 002E  
                 ??_xandi 0029                   ??_putch 0036                __pbssBANK0 0048  
                 ?i1_menu 0070              ?i1_lcd_clear 0070                __pmaintext 0AA4  
            ?i1_lcd_write 0070                __pintentry 0004                   _DADO_RX 004D  
                 ?_printf 0037        __size_of_principal 0380                ??i1_printf 0020  
                 _SSPCON2 0091                 ?_lcd_init 0070                 ?_lcd_goto 0070  
                 _SSPSTAT 0094                 ?_lcd_putc 0070                __stringtab 0800  
              _cont_timer 0049           ??_inicializacao 0026                   i1_putch 0906  
         __size_ofi1_menu 00E7         __end_of_lcd_clear 0982                 ?_spi_init 0070  
               ?_spi_read 0070         __end_of_lcd_write 0A44                   __ptext1 0BC3  
                 __ptext2 0015                   __ptext3 0A74                   __ptext4 0D7B  
                 __ptext5 0395                   __ptext6 090C                   __ptext7 09C3  
                 __ptext8 03F2                   __ptext9 0968           __size_of_printf 005D  
            __size_of_bip 0030              ??i1_lcd_goto 0073              ??i1_lcd_putc 0075  
                 _posicao 004C                ??_lcd_init 0035                ??_lcd_goto 0033  
              ??_lcd_putc 0035      end_of_initialization 0998         __end_of_principal 0395  
            ??i1_spi_read 0070                   printf@c 0042                   printf@f 0037  
              ??_spi_init 0030                ??_spi_read 0030        __end_ofi1_lcd_goto 091E  
            __pstringtext 0400        __end_ofi1_lcd_putc 09C3        __end_ofi1_spi_read 094F  
            i1printf@flag 0023               spi_read@rec 0032            __end_ofi1_menu 0D7B  
              lcd_write@c 0032      __size_ofi1_lcd_clear 0018      __size_ofi1_lcd_write 002C  
           __pbitbssBANK0 0238            __end_of_printf 03F2       start_initialization 0982  
               i1printf@c 0025                 i1printf@f 0077             i1lcd_goto@pos 0073  
             __end_of_bip 0AA4         __size_ofi1_printf 005D        lcd_init@init_value 0037  
                ??i1_menu 007D  __CFG_FOSC$INTRC_NOCLKOUT 0000               __pdataBANK0 004D  
                ??_printf 003D             __pcstackBANK0 0020       __end_of__stringdata 06C7  
                ?i1_putch 0070         __size_of_lcd_init 00D1         __size_of_lcd_goto 000A  
       __size_of_lcd_putc 0027                 _lcd_clear 0968         __size_of_spi_init 000E  
       __size_of_spi_read 0019                 __pstrings 0800                 _lcd_write 0A16  
          __size_ofi1_bip 0030            __size_of_xandi 0178            __size_of_putch 0008  
       interrupt_function 0004     __end_of_inicializacao 0BC3                 _principal 0015  
              ?_lcd_clear 0070               __stringbase 0812               __stringdata 0400  
              ?_lcd_write 0070                printf@flag 0040                 lcd_putc@c 0035  
                i1_printf 0AE7                  i1putch@c 0076          __size_ofi1_putch 0006  
            _selec_portas 023C                ?_principal 0070        __end_of__stringtab 0812  
                __ptext10 0A16                  __ptext11 094F                  __ptext20 099C  
                __ptext12 07F1                  __ptext21 0914                  __ptext13 0E88  
                __ptext22 091E                  __ptext14 0A44                  __ptext23 09EA  
                __ptext15 0C94                  __ptext24 0936                  __ptext16 0B44  
                __ptext17 06C7                  __ptext18 0AE7                  __ptext19 0906  
       __CFG_BOR4V$BOR40V 0000                  _lcd_init 0BC3                  _lcd_goto 03F2  
                _lcd_putc 09C3             __size_of_acao 012A             __size_of_main 0043  
           __size_of_menu 010D             ??i1_lcd_clear 0073             ??i1_lcd_write 0070  
                _spi_init 07F1                  _spi_read 094F                  _portas_1 004A  
                _portas_2 004B               ??_lcd_clear 0033               ??_lcd_write 0030  
                intlevel1 0000                 stringcode 080A                  printf@ap 0041  
             ??_principal 0044       __end_ofi1_lcd_clear 0936       __end_ofi1_lcd_write 0A16  
              _OPTION_REG 0081                  stringtab 0800  
