

Microchip Technology PIC LITE Macro Assembler V1.20 build 52243 
                                                                                               Fri Nov 08 14:22:02 2013

Microchip Technology Omniscient Code Generator (Lite mode) build 52243
     1                           	processor	16F690
     2                           	opt	pw 120
     3                           	opt	lm
     4                           	psect	idataCOMMON,global,class=CODE,delta=2
     5                           	psect	idataBANK0,global,class=CODE,delta=2
     6                           	psect	cinit,global,class=CODE,merge=1,delta=2
     7                           	psect	bitbssCOMMON,global,bit,class=COMMON,space=1,delta=1
     8                           	psect	dataCOMMON,global,class=COMMON,space=1,delta=1
     9                           	psect	dataBANK0,global,class=BANK0,space=1,delta=1
    10                           	psect	cstackCOMMON,global,class=COMMON,space=1,delta=1
    11                           	psect	cstackBANK0,global,class=BANK0,space=1,delta=1
    12                           	psect	maintext,global,class=CODE,split=1,delta=2
    13                           	psect	text1,local,class=CODE,merge=1,delta=2
    14                           	psect	swtext1,local,class=CONST,delta=2
    15                           	psect	swtext2,local,class=CONST,delta=2
    16                           	psect	swtext3,local,class=CONST,delta=2
    17                           	psect	swtext4,local,class=CONST,delta=2
    18                           	psect	text2,local,class=CODE,merge=1,delta=2
    19                           	psect	text3,local,class=CODE,merge=1,delta=2
    20                           	psect	text4,local,class=CODE,merge=1,delta=2
    21                           	psect	text5,local,class=CODE,merge=1,delta=2
    22                           	psect	text6,local,class=CODE,merge=1,delta=2
    23                           	psect	text7,local,class=CODE,merge=1,delta=2
    24                           	psect	text8,local,class=CODE,merge=1,delta=2
    25                           	psect	text9,local,class=CODE,merge=1,delta=2
    26                           	psect	swtext5,local,class=CONST,delta=2
    27                           	psect	text10,local,class=CODE,merge=1,delta=2
    28                           	psect	text11,local,class=CODE,merge=1,delta=2
    29                           	psect	text12,local,class=CODE,merge=1,delta=2
    30                           	psect	text13,local,class=CODE,merge=1,delta=2
    31                           	psect	text14,local,class=CODE,merge=1,delta=2
    32                           	psect	text15,local,class=CODE,merge=1,delta=2
    33                           	psect	text16,local,class=CODE,merge=1,delta=2
    34                           	psect	text17,local,class=CODE,merge=1,delta=2
    35                           	psect	text18,local,class=CODE,merge=1,delta=2
    36                           	psect	text19,local,class=CODE,merge=1,delta=2
    37                           	psect	intentry,global,class=CODE,delta=2
    38                           	dabs	1,0x7E,2
    39  0000                     	;# 
    40  0001                     	;# 
    41  0002                     	;# 
    42  0003                     	;# 
    43  0004                     	;# 
    44  0005                     	;# 
    45  0006                     	;# 
    46  0007                     	;# 
    47  000A                     	;# 
    48  000B                     	;# 
    49  000C                     	;# 
    50  000D                     	;# 
    51  000E                     	;# 
    52  000E                     	;# 
    53  000F                     	;# 
    54  0010                     	;# 
    55  0011                     	;# 
    56  0012                     	;# 
    57  0013                     	;# 
    58  0014                     	;# 
    59  0015                     	;# 
    60  0015                     	;# 
    61  0016                     	;# 
    62  0017                     	;# 
    63  0018                     	;# 
    64  0019                     	;# 
    65  001A                     	;# 
    66  001C                     	;# 
    67  001D                     	;# 
    68  001E                     	;# 
    69  001F                     	;# 
    70  0081                     	;# 
    71  0085                     	;# 
    72  0086                     	;# 
    73  0087                     	;# 
    74  008C                     	;# 
    75  008D                     	;# 
    76  008E                     	;# 
    77  008F                     	;# 
    78  0090                     	;# 
    79  0092                     	;# 
    80  0093                     	;# 
    81  0093                     	;# 
    82  0093                     	;# 
    83  0094                     	;# 
    84  0095                     	;# 
    85  0095                     	;# 
    86  0096                     	;# 
    87  0096                     	;# 
    88  0097                     	;# 
    89  0098                     	;# 
    90  0099                     	;# 
    91  009A                     	;# 
    92  009B                     	;# 
    93  009E                     	;# 
    94  009F                     	;# 
    95  010C                     	;# 
    96  010C                     	;# 
    97  010D                     	;# 
    98  010E                     	;# 
    99  010F                     	;# 
   100  0115                     	;# 
   101  0116                     	;# 
   102  0118                     	;# 
   103  0119                     	;# 
   104  011A                     	;# 
   105  011B                     	;# 
   106  011E                     	;# 
   107  011F                     	;# 
   108  018C                     	;# 
   109  018D                     	;# 
   110  019D                     	;# 
   111  019E                     	;# 
   112                           
   113                           	psect	idataCOMMON
   114  0F58                     __pidataCOMMON:	
   115                           
   116                           ;initializer for _DADO_RX
   117  0F58  34FF               	retlw	255
   118                           
   119                           ;initializer for _PORTA1
   120  0F59  34FF               	retlw	255
   121                           
   122                           ;initializer for _PORTA2
   123  0F5A  34FF               	retlw	255
   124                           
   125                           ;initializer for _PORTA3
   126  0F5B  34FF               	retlw	255
   127                           
   128                           	psect	idataBANK0
   129  07FE                     __pidataBANK0:	
   130                           
   131                           ;initializer for _PORTA4
   132  07FE  34FF               	retlw	255
   133  000B                     _INTCON	set	11
   134  0005                     _PORTA	set	5
   135  0006                     _PORTB	set	6
   136  0007                     _PORTC	set	7
   137  0013                     _SSPBUF	set	19
   138  0014                     _SSPCON	set	20
   139  006C                     _EEIF	set	108
   140  005F                     _GIE	set	95
   141  0028                     _RA0	set	40
   142  0029                     _RA1	set	41
   143  002A                     _RA2	set	42
   144  002C                     _RA4	set	44
   145  002D                     _RA5	set	45
   146  0034                     _RB4	set	52
   147  0035                     _RB5	set	53
   148  0036                     _RB6	set	54
   149  0037                     _RB7	set	55
   150  0038                     _RC0	set	56
   151  0039                     _RC1	set	57
   152  003A                     _RC2	set	58
   153  003B                     _RC3	set	59
   154  003C                     _RC4	set	60
   155  003D                     _RC5	set	61
   156  003E                     _RC6	set	62
   157  003F                     _RC7	set	63
   158  0063                     _SSPIF	set	99
   159  0081                     _OPTION_REG	set	129
   160  008F                     _OSCCON	set	143
   161  0094                     _SSPSTAT	set	148
   162  0085                     _TRISA	set	133
   163  0086                     _TRISB	set	134
   164  0087                     _TRISC	set	135
   165  04A0                     _BF	set	1184
   166  046C                     _EEIE	set	1132
   167  0463                     _SSPIE	set	1123
   168  0436                     _TRISB6	set	1078
   169  043F                     _TRISC7	set	1087
   170  011E                     _ANSEL	set	286
   171  011F                     _ANSELH	set	287
   172  010D                     _EEADR	set	269
   173  010C                     _EEDAT	set	268
   174  018C                     _EECON1	set	396
   175  018D                     _EECON2	set	397
   176  0C60                     _RD	set	3168
   177  0C61                     _WR	set	3169
   178  0C62                     _WREN	set	3170
   179                           
   180                           ; #config settings
   181  0000                     
   182                           	psect	cinit
   183  0F69                     start_initialization:	
   184  0F69                     __initialization:	
   185                           
   186                           ; Clear objects allocated to BITCOMMON
   187  0F69  01F9               	clrf	(__pbitbssCOMMON/(0+8))& (0+127)
   188                           
   189                           ; Initialize objects allocated to BANK0
   190  0F6A  118A  27FE  158A   	fcall	__pidataBANK0	;fetch initializer
   191  0F6D  00A4               	movwf	__pdataBANK0& (0+127)
   192                           
   193                           ; Initialize objects allocated to COMMON
   194  0F6E  158A  2758  158A   	fcall	__pidataCOMMON	;fetch initializer
   195  0F71  00F5               	movwf	__pdataCOMMON& (0+127)
   196  0F72  158A  2759  158A   	fcall	__pidataCOMMON+1	;fetch initializer
   197  0F75  00F6               	movwf	(__pdataCOMMON+1)& (0+127)
   198  0F76  158A  275A  158A   	fcall	__pidataCOMMON+2	;fetch initializer
   199  0F79  00F7               	movwf	(__pdataCOMMON+2)& (0+127)
   200  0F7A  158A  275B         	fcall	__pidataCOMMON+3	;fetch initializer
   201  0F7C  00F8               	movwf	(__pdataCOMMON+3)& (0+127)
   202  0F7D                     end_of_initialization:	
   203                           ;End of C runtime variable initialization code
   204                           
   205  0F7D                     __end_of__initialization:	
   206  0F7D  0183               	clrf	3
   207  0F7E  118A  2B78         	ljmp	_main	;jump to C main() function
   208                           
   209                           	psect	bitbssCOMMON
   210  03C8                     __pbitbssCOMMON:	
   211  03C8                     _up1:	
   212  03C8                     	ds	1
   213  03C9                     _up2:	
   214  03C9                     	ds	1
   215                           
   216                           	psect	dataCOMMON
   217  0075                     __pdataCOMMON:	
   218  0075                     _DADO_RX:	
   219  0075                     	ds	1
   220  0076                     _PORTA1:	
   221  0076                     	ds	1
   222  0077                     _PORTA2:	
   223  0077                     	ds	1
   224  0078                     _PORTA3:	
   225  0078                     	ds	1
   226                           
   227                           	psect	dataBANK0
   228  0024                     __pdataBANK0:	
   229  0024                     _PORTA4:	
   230  0024                     	ds	1
   231                           
   232                           	psect	cstackCOMMON
   233  0070                     __pcstackCOMMON:	
   234  0070                     ?_spi_init:	
   235  0070                     ?_spi_write:	
   236                           ; 0 bytes @ 0x0
   237                           
   238  0070                     ?_tabela:	
   239                           ; 0 bytes @ 0x0
   240                           
   241  0070                     ?_xandi:	
   242                           ; 0 bytes @ 0x0
   243                           
   244  0070                     ??_xandi:	
   245                           ; 0 bytes @ 0x0
   246                           
   247  0070                     ?_gravar_eeprom:	
   248                           ; 0 bytes @ 0x0
   249                           
   250  0070                     ?_modo_programacao:	
   251                           ; 0 bytes @ 0x0
   252                           
   253  0070                     ?_AX7400:	
   254                           ; 0 bytes @ 0x0
   255                           
   256  0070                     ?_AX7402:	
   257                           ; 0 bytes @ 0x0
   258                           
   259  0070                     ?_AX7404:	
   260                           ; 0 bytes @ 0x0
   261                           
   262  0070                     ?_AX7408:	
   263                           ; 0 bytes @ 0x0
   264                           
   265  0070                     ?_AX7432:	
   266                           ; 0 bytes @ 0x0
   267                           
   268  0070                     ?_AX7447:	
   269                           ; 0 bytes @ 0x0
   270                           
   271  0070                     ?_AX7473:	
   272                           ; 0 bytes @ 0x0
   273                           
   274  0070                     ?_AX7474:	
   275                           ; 0 bytes @ 0x0
   276                           
   277  0070                     ?_AX7486:	
   278                           ; 0 bytes @ 0x0
   279                           
   280  0070                     ?_AX74165:	
   281                           ; 0 bytes @ 0x0
   282                           
   283  0070                     ?_AX74191:	
   284                           ; 0 bytes @ 0x0
   285                           
   286  0070                     ?_AX74192:	
   287                           ; 0 bytes @ 0x0
   288                           
   289  0070                     ?_select_portas:	
   290                           ; 0 bytes @ 0x0
   291                           
   292  0070                     ?_main:	
   293                           ; 0 bytes @ 0x0
   294                           
   295                           
   296                           ; 0 bytes @ 0x0
   297  0070                     	ds	5
   298                           
   299                           	psect	cstackBANK0
   300  0020                     __pcstackBANK0:	
   301  0020                     ??_spi_init:	
   302  0020                     ??_spi_write:	
   303                           ; 0 bytes @ 0x0
   304                           
   305  0020                     ??_tabela:	
   306                           ; 0 bytes @ 0x0
   307                           
   308  0020                     ??_gravar_eeprom:	
   309                           ; 0 bytes @ 0x0
   310                           
   311  0020                     ??_AX7400:	
   312                           ; 0 bytes @ 0x0
   313                           
   314  0020                     ??_AX7402:	
   315                           ; 0 bytes @ 0x0
   316                           
   317  0020                     ??_AX7404:	
   318                           ; 0 bytes @ 0x0
   319                           
   320  0020                     ??_AX7408:	
   321                           ; 0 bytes @ 0x0
   322                           
   323  0020                     ??_AX7432:	
   324                           ; 0 bytes @ 0x0
   325                           
   326  0020                     ??_AX7473:	
   327                           ; 0 bytes @ 0x0
   328                           
   329  0020                     ??_AX7474:	
   330                           ; 0 bytes @ 0x0
   331                           
   332  0020                     ??_AX7486:	
   333                           ; 0 bytes @ 0x0
   334                           
   335  0020                     ??_AX74165:	
   336                           ; 0 bytes @ 0x0
   337                           
   338  0020                     ??_AX74191:	
   339                           ; 0 bytes @ 0x0
   340                           
   341  0020                     ??_AX74192:	
   342                           ; 0 bytes @ 0x0
   343                           
   344  0020                     ??_select_portas:	
   345                           ; 0 bytes @ 0x0
   346                           
   347  0020                     spi_write@dado:	
   348                           ; 0 bytes @ 0x0
   349                           
   350  0020                     tabela@dado:	
   351                           ; 1 bytes @ 0x0
   352                           
   353  0020                     gravar_eeprom@adr:	
   354                           ; 1 bytes @ 0x0
   355                           
   356  0020                     _AX7400$87:	
   357                           ; 1 bytes @ 0x0
   358                           
   359  0020                     _AX7402$92:	
   360                           ; 1 bytes @ 0x0
   361                           
   362  0020                     _AX7408$98:	
   363                           ; 1 bytes @ 0x0
   364                           
   365  0020                     _AX7432$103:	
   366                           ; 1 bytes @ 0x0
   367                           
   368                           
   369                           ; 1 bytes @ 0x0
   370  0020                     	ds	1
   371  0021                     ??_modo_programacao:	
   372  0021                     ??_AX7447:	
   373                           ; 0 bytes @ 0x1
   374                           
   375  0021                     _AX7400$88:	
   376                           ; 0 bytes @ 0x1
   377                           
   378  0021                     _AX7402$93:	
   379                           ; 1 bytes @ 0x1
   380                           
   381  0021                     _AX7408$99:	
   382                           ; 1 bytes @ 0x1
   383                           
   384  0021                     _AX7432$104:	
   385                           ; 1 bytes @ 0x1
   386                           
   387  0021                     AX74165@data:	
   388                           ; 1 bytes @ 0x1
   389                           
   390  0021                     AX74191@num:	
   391                           ; 1 bytes @ 0x1
   392                           
   393  0021                     AX74192@num:	
   394                           ; 1 bytes @ 0x1
   395                           
   396                           
   397                           ; 1 bytes @ 0x1
   398  0021                     	ds	1
   399  0022                     _AX7400$89:	
   400  0022                     _AX7402$94:	
   401                           ; 1 bytes @ 0x2
   402                           
   403  0022                     _AX7408$100:	
   404                           ; 1 bytes @ 0x2
   405                           
   406  0022                     _AX7432$105:	
   407                           ; 1 bytes @ 0x2
   408                           
   409  0022                     AX7447@num:	
   410                           ; 1 bytes @ 0x2
   411                           
   412                           
   413                           ; 1 bytes @ 0x2
   414  0022                     	ds	1
   415  0023                     _AX7400$90:	
   416  0023                     _AX7402$95:	
   417                           ; 1 bytes @ 0x3
   418                           
   419  0023                     _AX7408$101:	
   420                           ; 1 bytes @ 0x3
   421                           
   422  0023                     _AX7432$106:	
   423                           ; 1 bytes @ 0x3
   424                           
   425                           
   426                           ; 1 bytes @ 0x3
   427  0023                     	ds	1
   428  0024                     ??_main:	
   429                           
   430                           	psect	maintext
   431  0378                     __pmaintext:	
   432                           ; 0 bytes @ 0x4
   433 ;;
   434 ;;Main: autosize = 0, tempsize = 0, incstack = 0, save=0
   435 ;;
   436 ;; *************** function _main *****************
   437 ;; Defined at:
   438 ;;		line 601 in file "TCC_escravo.c"
   439 ;; Parameters:    Size  Location     Type
   440 ;;		None
   441 ;; Auto vars:     Size  Location     Type
   442 ;;		None
   443 ;; Return value:  Size  Location     Type
   444 ;;		None               void
   445 ;; Registers used:
   446 ;;		wreg, fsr0l, fsr0h, status,2, status,0, pclath, cstack
   447 ;; Tracked objects:
   448 ;;		On entry : 17F/0
   449 ;;		On exit  : 0/0
   450 ;;		Unchanged: 0/0
   451 ;; Data sizes:     COMMON   BANK0   BANK1   BANK2
   452 ;;      Params:         0       0       0       0
   453 ;;      Locals:         0       0       0       0
   454 ;;      Temps:          0       0       0       0
   455 ;;      Totals:         0       0       0       0
   456 ;;Total ram usage:        0 bytes
   457 ;; Hardware stack levels required when called:    3
   458 ;; This function calls:
   459 ;;		_modo_programacao
   460 ;;		_AX7400
   461 ;;		_AX7402
   462 ;;		_AX7404
   463 ;;		_AX7408
   464 ;;		_AX7432
   465 ;;		_AX7447
   466 ;;		_AX7473
   467 ;;		_AX7474
   468 ;;		_AX7486
   469 ;;		_AX74165
   470 ;;		_AX74191
   471 ;;		_AX74192
   472 ;;		_select_portas
   473 ;; This function is called by:
   474 ;;		Startup code after reset
   475 ;; This function uses a non-reentrant model
   476 ;;
   477                           
   478                           
   479                           ;psect for function _main
   480  0378                     _main:	
   481                           
   482                           ;TCC_escravo.c: 602: OSCCON=0b01110000;
   483                           
   484                           ;incstack = 0
   485                           ; Regs used in _main: [wreg-fsr0h+status,2+status,0+pclath+cstack]
   486  0378  3070               	movlw	112
   487  0379  1683               	bsf	3,5	;RP0=1, select bank1
   488  037A  1303               	bcf	3,6	;RP1=0, select bank1
   489  037B  008F               	movwf	15	;volatile
   490                           
   491                           ;TCC_escravo.c: 603: ANSEL=0;
   492  037C  1283               	bcf	3,5	;RP0=0, select bank2
   493  037D  1703               	bsf	3,6	;RP1=1, select bank2
   494  037E  019E               	clrf	30	;volatile
   495                           
   496                           ;TCC_escravo.c: 604: ANSELH=0;
   497  037F  019F               	clrf	31	;volatile
   498                           
   499                           ;TCC_escravo.c: 605: TRISA=0b11111110;
   500  0380  30FE               	movlw	254
   501  0381  1683               	bsf	3,5	;RP0=1, select bank1
   502  0382  1303               	bcf	3,6	;RP1=0, select bank1
   503  0383  0085               	movwf	5	;volatile
   504                           
   505                           ;TCC_escravo.c: 606: RA0=0;
   506  0384  1283               	bcf	3,5	;RP0=0, select bank0
   507  0385  1303               	bcf	3,6	;RP1=0, select bank0
   508  0386  1005               	bcf	5,0	;volatile
   509                           
   510                           ;TCC_escravo.c: 607: TRISB=0xFF;
   511  0387  30FF               	movlw	255
   512  0388  1683               	bsf	3,5	;RP0=1, select bank1
   513  0389  1303               	bcf	3,6	;RP1=0, select bank1
   514  038A  0086               	movwf	6	;volatile
   515                           
   516                           ;TCC_escravo.c: 608: TRISC=0xFF;
   517  038B  30FF               	movlw	255
   518  038C  0087               	movwf	7	;volatile
   519                           
   520                           ;TCC_escravo.c: 609: OPTION_REG=0b10000000;
   521  038D  3080               	movlw	128
   522  038E  0081               	movwf	1	;volatile
   523                           
   524                           ;TCC_escravo.c: 610: INTCON=0b11000000;
   525  038F  30C0               	movlw	192
   526  0390  008B               	movwf	11	;volatile
   527                           
   528                           ;TCC_escravo.c: 611: EECON1=0;
   529  0391  1683               	bsf	3,5	;RP0=1, select bank3
   530  0392  1703               	bsf	3,6	;RP1=1, select bank3
   531  0393  018C               	clrf	12	;volatile
   532                           
   533                           ;TCC_escravo.c: 612: while(RA4&&RA5&&RC4&&RC3&&RC5&&RA1&&RA2&&RC0&&RC1&&RC2) modo_progra
      +                          macao();
   534  0394  2B98               	goto	l2965
   535  0395                     l2963:	
   536  0395  118A  2498  118A   	fcall	_modo_programacao
   537  0398                     l2965:	
   538  0398  1283               	bcf	3,5	;RP0=0, select bank0
   539  0399  1303               	bcf	3,6	;RP1=0, select bank0
   540  039A  1A05               	btfsc	5,4	;volatile
   541  039B  1E85               	btfss	5,5	;volatile
   542  039C  2BAA               	goto	l2985
   543  039D  1A07               	btfsc	7,4	;volatile
   544  039E  1D87               	btfss	7,3	;volatile
   545  039F  2BAA               	goto	l2985
   546  03A0  1A87               	btfsc	7,5	;volatile
   547  03A1  1C85               	btfss	5,1	;volatile
   548  03A2  2BAA               	goto	l2985
   549  03A3  1905               	btfsc	5,2	;volatile
   550  03A4  1C07               	btfss	7,0	;volatile
   551  03A5  2BAA               	goto	l2985
   552  03A6  1C87               	btfss	7,1	;volatile
   553  03A7  2BAA               	goto	l2985
   554  03A8  1907               	btfsc	7,2	;volatile
   555  03A9  2B95               	goto	l2963
   556  03AA                     l2985:	
   557                           
   558                           ;TCC_escravo.c: 613: EEADR=0x01;
   559  03AA  3001               	movlw	1
   560  03AB  1283               	bcf	3,5	;RP0=0, select bank2
   561  03AC  1703               	bsf	3,6	;RP1=1, select bank2
   562  03AD  008D               	movwf	13	;volatile
   563                           
   564                           ;TCC_escravo.c: 614: RD=1;
   565  03AE  1683               	bsf	3,5	;RP0=1, select bank3
   566  03AF  1703               	bsf	3,6	;RP1=1, select bank3
   567  03B0  140C               	bsf	12,0	;volatile
   568                           
   569                           ;TCC_escravo.c: 615: _nop();
   570  03B1  0000               	nop
   571                           
   572                           ;TCC_escravo.c: 616: switch(EEDAT){
   573  03B2  2BEA               	goto	l3019
   574  03B3                     l2991:	
   575                           ;TCC_escravo.c: 617: case 0: AX7400(); break;
   576                           
   577  03B3  158A  27C7  118A   	fcall	_AX7400
   578  03B6  2C15               	goto	l428
   579  03B7                     l2993:	
   580                           ;TCC_escravo.c: 619: case 2: AX7402(); break;
   581                           
   582  03B7  118A  279F  118A   	fcall	_AX7402
   583  03BA  2C15               	goto	l428
   584  03BB                     l2995:	
   585                           ;TCC_escravo.c: 621: case 4: AX7404(); break;
   586                           
   587  03BB  118A  26AC  118A   	fcall	_AX7404
   588  03BE  2C15               	goto	l428
   589  03BF                     l2997:	
   590                           ;TCC_escravo.c: 623: case 8: AX7408(); break;
   591                           
   592  03BF  118A  2766  118A   	fcall	_AX7408
   593  03C2  2C15               	goto	l428
   594  03C3                     l2999:	
   595                           ;TCC_escravo.c: 625: case 32: AX7432(); break;
   596                           
   597  03C3  118A  272D  118A   	fcall	_AX7432
   598  03C6  2C15               	goto	l428
   599  03C7                     l3001:	
   600                           ;TCC_escravo.c: 627: case 47: AX7447(); break;
   601                           
   602  03C7  118A  26EF  118A   	fcall	_AX7447
   603  03CA  2C15               	goto	l428
   604  03CB                     l3003:	
   605                           ;TCC_escravo.c: 629: case 73: AX7473(); break;
   606                           
   607  03CB  118A  264B  118A   	fcall	_AX7473
   608  03CE  2C15               	goto	l428
   609  03CF                     l3005:	
   610                           ;TCC_escravo.c: 631: case 74: AX7474(); break;
   611                           
   612  03CF  118A  25EA  118A   	fcall	_AX7474
   613  03D2  2C15               	goto	l428
   614  03D3                     l3007:	
   615                           ;TCC_escravo.c: 633: case 86: AX7486(); break;
   616                           
   617  03D3  118A  2589  118A   	fcall	_AX7486
   618  03D6  2C15               	goto	l428
   619  03D7                     l3009:	
   620                           ;TCC_escravo.c: 635: case 165: AX74165(); break;
   621                           
   622  03D7  118A  2514  118A   	fcall	_AX74165
   623  03DA  2C15               	goto	l428
   624  03DB                     l3011:	
   625                           ;TCC_escravo.c: 637: case 191: AX74191(); break;
   626                           
   627  03DB  118A  22AF  118A   	fcall	_AX74191
   628  03DE  2C15               	goto	l428
   629  03DF                     l3013:	
   630                           ;TCC_escravo.c: 639: case 192: AX74192(); break;
   631                           
   632  03DF  118A  21AE  118A   	fcall	_AX74192
   633  03E2  2C15               	goto	l428
   634  03E3                     l3015:	
   635                           ;TCC_escravo.c: 641: case 222: select_portas(); break;
   636                           
   637  03E3  118A  2013  118A   	fcall	_select_portas
   638  03E6  2C15               	goto	l428
   639  03E7                     l427:	
   640                           ;TCC_escravo.c: 643: default:
   641                           
   642                           
   643                           ;TCC_escravo.c: 644: GIE=0;
   644  03E7  138B               	bcf	11,7	;volatile
   645  03E8  0063               	sleep	;# 
   646                           
   647                           ;TCC_escravo.c: 647: }
   648                           
   649                           ;TCC_escravo.c: 646: break;
   650  03E9  2C15               	goto	l428
   651  03EA                     l3019:	
   652  03EA  1283               	bcf	3,5	;RP0=0, select bank2
   653  03EB  1703               	bsf	3,6	;RP1=1, select bank2
   654  03EC  080C               	movf	12,w	;volatile
   655                           
   656                           ; Switch size 1, requested type "space"
   657                           ; Number of cases is 13, Range of values is 0 to 222
   658                           ; switch strategies available:
   659                           ; Name         Instructions Cycles
   660                           ; simple_byte           40    21 (average)
   661                           ; jumptable            260     6 (fixed)
   662                           ; rangetable           227     6 (fixed)
   663                           ; spacedrange          452     9 (fixed)
   664                           ; locatedrange         223     3 (fixed)
   665                           ;	Chosen strategy is simple_byte
   666  03ED  3A00               	xorlw	0	; case 0
   667  03EE  1903               	skipnz
   668  03EF  2BB3               	goto	l2991
   669  03F0  3A02               	xorlw	2	; case 2
   670  03F1  1903               	skipnz
   671  03F2  2BB7               	goto	l2993
   672  03F3  3A06               	xorlw	6	; case 4
   673  03F4  1903               	skipnz
   674  03F5  2BBB               	goto	l2995
   675  03F6  3A0C               	xorlw	12	; case 8
   676  03F7  1903               	skipnz
   677  03F8  2BBF               	goto	l2997
   678  03F9  3A28               	xorlw	40	; case 32
   679  03FA  1903               	skipnz
   680  03FB  2BC3               	goto	l2999
   681  03FC  3A0F               	xorlw	15	; case 47
   682  03FD  1903               	skipnz
   683  03FE  2BC7               	goto	l3001
   684  03FF  3A66               	xorlw	102	; case 73
   685  0400  1903               	skipnz
   686  0401  2BCB               	goto	l3003
   687  0402  3A03               	xorlw	3	; case 74
   688  0403  1903               	skipnz
   689  0404  2BCF               	goto	l3005
   690  0405  3A1C               	xorlw	28	; case 86
   691  0406  1903               	skipnz
   692  0407  2BD3               	goto	l3007
   693  0408  3AF3               	xorlw	243	; case 165
   694  0409  1903               	skipnz
   695  040A  2BD7               	goto	l3009
   696  040B  3A1A               	xorlw	26	; case 191
   697  040C  1903               	skipnz
   698  040D  2BDB               	goto	l3011
   699  040E  3A7F               	xorlw	127	; case 192
   700  040F  1903               	skipnz
   701  0410  2BDF               	goto	l3013
   702  0411  3A1E               	xorlw	30	; case 222
   703  0412  1903               	skipnz
   704  0413  2BE3               	goto	l3015
   705  0414  2BE7               	goto	l427
   706  0415                     l428:	
   707  0415  118A  2811         	ljmp	start
   708  0417                     __end_of_main:	
   709                           
   710                           	psect	text1
   711  0013                     __ptext1:	
   712 ;; *************** function _select_portas *****************
   713 ;; Defined at:
   714 ;;		line 545 in file "TCC_escravo.c"
   715 ;; Parameters:    Size  Location     Type
   716 ;;		None
   717 ;; Auto vars:     Size  Location     Type
   718 ;;		None
   719 ;; Return value:  Size  Location     Type
   720 ;;		None               void
   721 ;; Registers used:
   722 ;;		wreg, fsr0l, fsr0h, status,2, status,0
   723 ;; Tracked objects:
   724 ;;		On entry : 0/0
   725 ;;		On exit  : 0/0
   726 ;;		Unchanged: 0/0
   727 ;; Data sizes:     COMMON   BANK0   BANK1   BANK2
   728 ;;      Params:         0       0       0       0
   729 ;;      Locals:         0       0       0       0
   730 ;;      Temps:          0       2       0       0
   731 ;;      Totals:         0       2       0       0
   732 ;;Total ram usage:        2 bytes
   733 ;; Hardware stack levels used:    1
   734 ;; Hardware stack levels required when called:    1
   735 ;; This function calls:
   736 ;;		Nothing
   737 ;; This function is called by:
   738 ;;		_main
   739 ;; This function uses a non-reentrant model
   740 ;;
   741                           
   742                           
   743                           ;psect for function _select_portas
   744  0013                     _select_portas:	
   745                           
   746                           ;TCC_escravo.c: 546: RA0=0;
   747                           
   748                           ;incstack = 0
   749                           ; Regs used in _select_portas: [wreg-fsr0h+status,2+status,0]
   750  0013  1283               	bcf	3,5	;RP0=0, select bank0
   751  0014  1303               	bcf	3,6	;RP1=0, select bank0
   752  0015  1005               	bcf	5,0	;volatile
   753                           
   754                           ;TCC_escravo.c: 547: TRISA=0b11111110;
   755  0016  30FE               	movlw	254
   756  0017  1683               	bsf	3,5	;RP0=1, select bank1
   757  0018  1303               	bcf	3,6	;RP1=0, select bank1
   758  0019  0085               	movwf	5	;volatile
   759                           
   760                           ;TCC_escravo.c: 548: TRISB=0b10111111;
   761  001A  30BF               	movlw	191
   762  001B  0086               	movwf	6	;volatile
   763                           
   764                           ;TCC_escravo.c: 549: TRISC=0b01101011;
   765  001C  306B               	movlw	107
   766  001D  0087               	movwf	7	;volatile
   767                           
   768                           ;TCC_escravo.c: 550: EEADR=0x21;
   769  001E  3021               	movlw	33
   770  001F  1283               	bcf	3,5	;RP0=0, select bank2
   771  0020  1703               	bsf	3,6	;RP1=1, select bank2
   772  0021  008D               	movwf	13	;volatile
   773                           
   774                           ;TCC_escravo.c: 551: RD=1;
   775  0022  1683               	bsf	3,5	;RP0=1, select bank3
   776  0023  1703               	bsf	3,6	;RP1=1, select bank3
   777  0024  140C               	bsf	12,0	;volatile
   778                           
   779                           ;TCC_escravo.c: 552: _nop();
   780  0025  0000               	nop
   781                           
   782                           ;TCC_escravo.c: 553: PORTA1=(EEDAT&0x0F);
   783  0026  1283               	bcf	3,5	;RP0=0, select bank2
   784  0027  1703               	bsf	3,6	;RP1=1, select bank2
   785  0028  080C               	movf	12,w	;volatile
   786  0029  390F               	andlw	15
   787  002A  1283               	bcf	3,5	;RP0=0, select bank0
   788  002B  1303               	bcf	3,6	;RP1=0, select bank0
   789  002C  00A0               	movwf	??_select_portas
   790  002D  0820               	movf	??_select_portas,w
   791  002E  00F6               	movwf	_PORTA1
   792                           
   793                           ;TCC_escravo.c: 554: PORTA2=((EEDAT>>4)&0x0F);
   794  002F  1283               	bcf	3,5	;RP0=0, select bank2
   795  0030  1703               	bsf	3,6	;RP1=1, select bank2
   796  0031  080C               	movf	12,w	;volatile
   797  0032  1283               	bcf	3,5	;RP0=0, select bank0
   798  0033  1303               	bcf	3,6	;RP1=0, select bank0
   799  0034  00A0               	movwf	??_select_portas
   800  0035  3004               	movlw	4
   801  0036                     u7125:	
   802  0036  1003               	clrc
   803  0037  0CA0               	rrf	??_select_portas,f
   804  0038  3EFF               	addlw	-1
   805  0039  1D03               	skipz
   806  003A  2836               	goto	u7125
   807  003B  0820               	movf	??_select_portas,w
   808  003C  390F               	andlw	15
   809  003D  00A1               	movwf	??_select_portas+1
   810  003E  0821               	movf	??_select_portas+1,w
   811  003F  00F7               	movwf	_PORTA2
   812                           
   813                           ;TCC_escravo.c: 555: EEADR=0x22;
   814  0040  3022               	movlw	34
   815  0041  1283               	bcf	3,5	;RP0=0, select bank2
   816  0042  1703               	bsf	3,6	;RP1=1, select bank2
   817  0043  008D               	movwf	13	;volatile
   818                           
   819                           ;TCC_escravo.c: 556: RD=1;
   820  0044  1683               	bsf	3,5	;RP0=1, select bank3
   821  0045  1703               	bsf	3,6	;RP1=1, select bank3
   822  0046  140C               	bsf	12,0	;volatile
   823                           
   824                           ;TCC_escravo.c: 557: _nop();
   825  0047  0000               	nop
   826                           
   827                           ;TCC_escravo.c: 558: PORTA3=(EEDAT&0x0F);
   828  0048  1283               	bcf	3,5	;RP0=0, select bank2
   829  0049  1703               	bsf	3,6	;RP1=1, select bank2
   830  004A  080C               	movf	12,w	;volatile
   831  004B  390F               	andlw	15
   832  004C  1283               	bcf	3,5	;RP0=0, select bank0
   833  004D  1303               	bcf	3,6	;RP1=0, select bank0
   834  004E  00A0               	movwf	??_select_portas
   835  004F  0820               	movf	??_select_portas,w
   836  0050  00F8               	movwf	_PORTA3
   837                           
   838                           ;TCC_escravo.c: 559: PORTA4=((EEDAT>>4)&0x0F);
   839  0051  1283               	bcf	3,5	;RP0=0, select bank2
   840  0052  1703               	bsf	3,6	;RP1=1, select bank2
   841  0053  080C               	movf	12,w	;volatile
   842  0054  1283               	bcf	3,5	;RP0=0, select bank0
   843  0055  1303               	bcf	3,6	;RP1=0, select bank0
   844  0056  00A0               	movwf	??_select_portas
   845  0057  3004               	movlw	4
   846  0058                     u7135:	
   847  0058  1003               	clrc
   848  0059  0CA0               	rrf	??_select_portas,f
   849  005A  3EFF               	addlw	-1
   850  005B  1D03               	skipz
   851  005C  2858               	goto	u7135
   852  005D  0820               	movf	??_select_portas,w
   853  005E  390F               	andlw	15
   854  005F  00A1               	movwf	??_select_portas+1
   855  0060  0821               	movf	??_select_portas+1,w
   856  0061  00A4               	movwf	_PORTA4
   857                           
   858                           ;TCC_escravo.c: 561: switch(PORTA1){
   859                           
   860                           ;TCC_escravo.c: 560: while(1){
   861  0062  28AC               	goto	l2879
   862  0063                     l2865:	
   863                           ;TCC_escravo.c: 562: case 0: RC4=(RC5&RA5); break;
   864                           
   865  0063  3001               	movlw	1
   866  0064  1E87               	btfss	7,5	;volatile
   867  0065  3900               	andlw	0
   868  0066  1E85               	btfss	5,5	;volatile
   869  0067  3900               	andlw	0
   870  0068  2874               	goto	L34
   871  0069                     l2867:	
   872                           ;TCC_escravo.c: 563: case 1: RC4=!(RC5&RA5); break;
   873                           
   874  0069  3001               	movlw	1
   875  006A  1E87               	btfss	7,5	;volatile
   876  006B  3900               	andlw	0
   877  006C  1E85               	btfss	5,5	;volatile
   878  006D  3900               	andlw	0
   879  006E  2882               	goto	L35
   880  006F                     l2869:	
   881                           ;TCC_escravo.c: 564: case 2: RC4=(RC5|RA5); break;
   882                           
   883  006F  3000               	movlw	0
   884  0070  1A87               	btfsc	7,5	;volatile
   885  0071  3801               	iorlw	1
   886  0072  1A85               	btfsc	5,5	;volatile
   887  0073  3801               	iorlw	1
   888  0074                     L34:	
   889  0074  3800               	iorlw	0
   890  0075  2890               	goto	L25
   891  0076                     l2871:	
   892                           ;TCC_escravo.c: 565: case 3: RC4=!(RC5|RA5); break;
   893                           
   894  0076  1E85               	btfss	5,5	;volatile
   895  0077  287A               	goto	u7200
   896  0078  3001               	movlw	1
   897  0079  287B               	goto	u7202
   898  007A                     u7200:	
   899  007A  3000               	movlw	0
   900  007B                     u7202:	
   901  007B  00A0               	movwf	??_select_portas
   902  007C  1E87               	btfss	7,5	;volatile
   903  007D  2880               	goto	u7210
   904  007E  3001               	movlw	1
   905  007F  2881               	goto	u7212
   906  0080                     u7210:	
   907  0080  3000               	movlw	0
   908  0081                     u7212:	
   909  0081  0420               	iorwf	??_select_portas,w
   910  0082                     L35:	
   911  0082  3800               	iorlw	0
   912  0083  289F               	goto	L26
   913  0084                     l2873:	
   914                           ;TCC_escravo.c: 566: case 4: RC4=(RC5^RA5); break;
   915                           
   916  0084  1E85               	btfss	5,5	;volatile
   917  0085  2888               	goto	u7240
   918  0086  3001               	movlw	1
   919  0087  2889               	goto	u7242
   920  0088                     u7240:	
   921  0088  3000               	movlw	0
   922  0089                     u7242:	
   923  0089  00A0               	movwf	??_select_portas
   924  008A  1E87               	btfss	7,5	;volatile
   925  008B  288E               	goto	u7250
   926  008C  3001               	movlw	1
   927  008D  288F               	goto	u7252
   928  008E                     u7250:	
   929  008E  3000               	movlw	0
   930  008F                     u7252:	
   931  008F  0620               	xorwf	??_select_portas,w
   932  0090                     L25:	
   933  0090  1D03               	skipz
   934  0091  28A4               	goto	L6
   935  0092  28A8               	goto	u7320
   936  0093                     l2875:	
   937                           ;TCC_escravo.c: 567: case 5: RC4=!(RC5^RA5); break;
   938                           
   939  0093  1E85               	btfss	5,5	;volatile
   940  0094  2897               	goto	u7280
   941  0095  3001               	movlw	1
   942  0096  2898               	goto	u7282
   943  0097                     u7280:	
   944  0097  3000               	movlw	0
   945  0098                     u7282:	
   946  0098  00A0               	movwf	??_select_portas
   947  0099  1E87               	btfss	7,5	;volatile
   948  009A  289D               	goto	u7290
   949  009B  3001               	movlw	1
   950  009C  289E               	goto	u7292
   951  009D                     u7290:	
   952  009D  3000               	movlw	0
   953  009E                     u7292:	
   954  009E  0620               	xorwf	??_select_portas,w
   955  009F                     L26:	
   956  009F  1903               	skipnz
   957  00A0  28A4               	goto	L6
   958  00A1  28A8               	goto	u7320
   959  00A2                     l374:	
   960                           ;TCC_escravo.c: 568: case 6: RC4=(!RC5); break;
   961                           
   962  00A2  1A87               	btfsc	7,5	;volatile
   963  00A3  28A8               	goto	u7320
   964  00A4                     L6:	
   965  00A4  1283               	bcf	3,5	;RP0=0, select bank0
   966  00A5  1303               	bcf	3,6	;RP1=0, select bank0
   967  00A6  1607               	bsf	7,4	;volatile
   968  00A7  2902               	goto	l2895
   969  00A8                     u7320:	
   970  00A8  1283               	bcf	3,5	;RP0=0, select bank0
   971  00A9  1303               	bcf	3,6	;RP1=0, select bank0
   972  00AA  1207               	bcf	7,4	;volatile
   973                           
   974                           ;TCC_escravo.c: 569: }
   975  00AB  2902               	goto	l2895
   976  00AC                     l2879:	
   977  00AC  0876               	movf	_PORTA1,w
   978                           
   979                           ; Switch size 1, requested type "space"
   980                           ; Number of cases is 7, Range of values is 0 to 6
   981                           ; switch strategies available:
   982                           ; Name         Instructions Cycles
   983                           ; direct_byte           21     7 (fixed)
   984                           ; simple_byte           22    12 (average)
   985                           ; jumptable            260     6 (fixed)
   986                           ; rangetable            11     6 (fixed)
   987                           ; spacedrange           20     9 (fixed)
   988                           ; locatedrange           7     3 (fixed)
   989                           ;	Chosen strategy is direct_byte
   990  00AD  0084               	movwf	4
   991  00AE  3007               	movlw	7
   992  00AF  0204               	subwf	4,w
   993  00B0  1803               	skipnc
   994  00B1  2902               	goto	l2895
   995  00B2  3008               	movlw	high S3151
   996  00B3  008A               	movwf	10
   997  00B4  1003               	clrc
   998  00B5  0D04               	rlf	4,w
   999  00B6  3E00               	addlw	low S3151
  1000  00B7  0082               	movwf	2
  1001                           
  1002                           ;TCC_escravo.c: 570: switch(PORTA2){
  1003  00B8  2902               	goto	l2895
  1004  00B9                     l2881:	
  1005                           ;TCC_escravo.c: 571: case 0: RC7=(RC3&RC6); break;
  1006                           
  1007  00B9  3001               	movlw	1
  1008  00BA  1D87               	btfss	7,3	;volatile
  1009  00BB  3900               	andlw	0
  1010  00BC  1F07               	btfss	7,6	;volatile
  1011  00BD  3900               	andlw	0
  1012  00BE  28CA               	goto	L36
  1013  00BF                     l2883:	
  1014                           ;TCC_escravo.c: 572: case 1: RC7=!(RC3&RC6); break;
  1015                           
  1016  00BF  3001               	movlw	1
  1017  00C0  1D87               	btfss	7,3	;volatile
  1018  00C1  3900               	andlw	0
  1019  00C2  1F07               	btfss	7,6	;volatile
  1020  00C3  3900               	andlw	0
  1021  00C4  28D8               	goto	L37
  1022  00C5                     l2885:	
  1023                           ;TCC_escravo.c: 573: case 2: RC7=(RC3|RC6); break;
  1024                           
  1025  00C5  3000               	movlw	0
  1026  00C6  1987               	btfsc	7,3	;volatile
  1027  00C7  3801               	iorlw	1
  1028  00C8  1B07               	btfsc	7,6	;volatile
  1029  00C9  3801               	iorlw	1
  1030  00CA                     L36:	
  1031  00CA  3800               	iorlw	0
  1032  00CB  28E6               	goto	L27
  1033  00CC                     l2887:	
  1034                           ;TCC_escravo.c: 574: case 3: RC7=!(RC3|RC6); break;
  1035                           
  1036  00CC  1F07               	btfss	7,6	;volatile
  1037  00CD  28D0               	goto	u7400
  1038  00CE  3001               	movlw	1
  1039  00CF  28D1               	goto	u7402
  1040  00D0                     u7400:	
  1041  00D0  3000               	movlw	0
  1042  00D1                     u7402:	
  1043  00D1  00A0               	movwf	??_select_portas
  1044  00D2  1D87               	btfss	7,3	;volatile
  1045  00D3  28D6               	goto	u7410
  1046  00D4  3001               	movlw	1
  1047  00D5  28D7               	goto	u7412
  1048  00D6                     u7410:	
  1049  00D6  3000               	movlw	0
  1050  00D7                     u7412:	
  1051  00D7  0420               	iorwf	??_select_portas,w
  1052  00D8                     L37:	
  1053  00D8  3800               	iorlw	0
  1054  00D9  28F5               	goto	L28
  1055  00DA                     l2889:	
  1056                           ;TCC_escravo.c: 575: case 4: RC7=(RC3^RC6); break;
  1057                           
  1058  00DA  1F07               	btfss	7,6	;volatile
  1059  00DB  28DE               	goto	u7440
  1060  00DC  3001               	movlw	1
  1061  00DD  28DF               	goto	u7442
  1062  00DE                     u7440:	
  1063  00DE  3000               	movlw	0
  1064  00DF                     u7442:	
  1065  00DF  00A0               	movwf	??_select_portas
  1066  00E0  1D87               	btfss	7,3	;volatile
  1067  00E1  28E4               	goto	u7450
  1068  00E2  3001               	movlw	1
  1069  00E3  28E5               	goto	u7452
  1070  00E4                     u7450:	
  1071  00E4  3000               	movlw	0
  1072  00E5                     u7452:	
  1073  00E5  0620               	xorwf	??_select_portas,w
  1074  00E6                     L27:	
  1075  00E6  1D03               	skipz
  1076  00E7  28FA               	goto	L12
  1077  00E8  28FE               	goto	u7520
  1078  00E9                     l2891:	
  1079                           ;TCC_escravo.c: 576: case 5: RC7=!(RC3^RC6); break;
  1080                           
  1081  00E9  1F07               	btfss	7,6	;volatile
  1082  00EA  28ED               	goto	u7480
  1083  00EB  3001               	movlw	1
  1084  00EC  28EE               	goto	u7482
  1085  00ED                     u7480:	
  1086  00ED  3000               	movlw	0
  1087  00EE                     u7482:	
  1088  00EE  00A0               	movwf	??_select_portas
  1089  00EF  1D87               	btfss	7,3	;volatile
  1090  00F0  28F3               	goto	u7490
  1091  00F1  3001               	movlw	1
  1092  00F2  28F4               	goto	u7492
  1093  00F3                     u7490:	
  1094  00F3  3000               	movlw	0
  1095  00F4                     u7492:	
  1096  00F4  0620               	xorwf	??_select_portas,w
  1097  00F5                     L28:	
  1098  00F5  1903               	skipnz
  1099  00F6  28FA               	goto	L12
  1100  00F7  28FE               	goto	u7520
  1101  00F8                     l383:	
  1102                           ;TCC_escravo.c: 577: case 6: RC7=(!RC3); break;
  1103                           
  1104  00F8  1987               	btfsc	7,3	;volatile
  1105  00F9  28FE               	goto	u7520
  1106  00FA                     L12:	
  1107  00FA  1283               	bcf	3,5	;RP0=0, select bank0
  1108  00FB  1303               	bcf	3,6	;RP1=0, select bank0
  1109  00FC  1787               	bsf	7,7	;volatile
  1110  00FD  2958               	goto	l2911
  1111  00FE                     u7520:	
  1112  00FE  1283               	bcf	3,5	;RP0=0, select bank0
  1113  00FF  1303               	bcf	3,6	;RP1=0, select bank0
  1114  0100  1387               	bcf	7,7	;volatile
  1115                           
  1116                           ;TCC_escravo.c: 578: }
  1117  0101  2958               	goto	l2911
  1118  0102                     l2895:	
  1119  0102  0877               	movf	_PORTA2,w
  1120                           
  1121                           ; Switch size 1, requested type "space"
  1122                           ; Number of cases is 7, Range of values is 0 to 6
  1123                           ; switch strategies available:
  1124                           ; Name         Instructions Cycles
  1125                           ; direct_byte           21     7 (fixed)
  1126                           ; simple_byte           22    12 (average)
  1127                           ; jumptable            260     6 (fixed)
  1128                           ; rangetable            11     6 (fixed)
  1129                           ; spacedrange           20     9 (fixed)
  1130                           ; locatedrange           7     3 (fixed)
  1131                           ;	Chosen strategy is direct_byte
  1132  0103  0084               	movwf	4
  1133  0104  3007               	movlw	7
  1134  0105  0204               	subwf	4,w
  1135  0106  1803               	skipnc
  1136  0107  2958               	goto	l2911
  1137  0108  3008               	movlw	high S3153
  1138  0109  008A               	movwf	10
  1139  010A  1003               	clrc
  1140  010B  0D04               	rlf	4,w
  1141  010C  3E0E               	addlw	low S3153
  1142  010D  0082               	movwf	2
  1143                           
  1144                           ;TCC_escravo.c: 579: switch(PORTA3){
  1145  010E  2958               	goto	l2911
  1146  010F                     l2897:	
  1147                           ;TCC_escravo.c: 580: case 0: RB6=(RB4&RB7); break;
  1148                           
  1149  010F  3001               	movlw	1
  1150  0110  1E06               	btfss	6,4	;volatile
  1151  0111  3900               	andlw	0
  1152  0112  1F86               	btfss	6,7	;volatile
  1153  0113  3900               	andlw	0
  1154  0114  2920               	goto	L38
  1155  0115                     l2899:	
  1156                           ;TCC_escravo.c: 581: case 1: RB6=!(RB4&RB7); break;
  1157                           
  1158  0115  3001               	movlw	1
  1159  0116  1E06               	btfss	6,4	;volatile
  1160  0117  3900               	andlw	0
  1161  0118  1F86               	btfss	6,7	;volatile
  1162  0119  3900               	andlw	0
  1163  011A  292E               	goto	L39
  1164  011B                     l2901:	
  1165                           ;TCC_escravo.c: 582: case 2: RB6=(RB4|RB7); break;
  1166                           
  1167  011B  3000               	movlw	0
  1168  011C  1A06               	btfsc	6,4	;volatile
  1169  011D  3801               	iorlw	1
  1170  011E  1B86               	btfsc	6,7	;volatile
  1171  011F  3801               	iorlw	1
  1172  0120                     L38:	
  1173  0120  3800               	iorlw	0
  1174  0121  293C               	goto	L29
  1175  0122                     l2903:	
  1176                           ;TCC_escravo.c: 583: case 3: RB6=!(RB4|RB7); break;
  1177                           
  1178  0122  1F86               	btfss	6,7	;volatile
  1179  0123  2926               	goto	u7600
  1180  0124  3001               	movlw	1
  1181  0125  2927               	goto	u7602
  1182  0126                     u7600:	
  1183  0126  3000               	movlw	0
  1184  0127                     u7602:	
  1185  0127  00A0               	movwf	??_select_portas
  1186  0128  1E06               	btfss	6,4	;volatile
  1187  0129  292C               	goto	u7610
  1188  012A  3001               	movlw	1
  1189  012B  292D               	goto	u7612
  1190  012C                     u7610:	
  1191  012C  3000               	movlw	0
  1192  012D                     u7612:	
  1193  012D  0420               	iorwf	??_select_portas,w
  1194  012E                     L39:	
  1195  012E  3800               	iorlw	0
  1196  012F  294B               	goto	L30
  1197  0130                     l2905:	
  1198                           ;TCC_escravo.c: 584: case 4: RB6=(RB4^RB7); break;
  1199                           
  1200  0130  1F86               	btfss	6,7	;volatile
  1201  0131  2934               	goto	u7640
  1202  0132  3001               	movlw	1
  1203  0133  2935               	goto	u7642
  1204  0134                     u7640:	
  1205  0134  3000               	movlw	0
  1206  0135                     u7642:	
  1207  0135  00A0               	movwf	??_select_portas
  1208  0136  1E06               	btfss	6,4	;volatile
  1209  0137  293A               	goto	u7650
  1210  0138  3001               	movlw	1
  1211  0139  293B               	goto	u7652
  1212  013A                     u7650:	
  1213  013A  3000               	movlw	0
  1214  013B                     u7652:	
  1215  013B  0620               	xorwf	??_select_portas,w
  1216  013C                     L29:	
  1217  013C  1D03               	skipz
  1218  013D  2950               	goto	L18
  1219  013E  2954               	goto	u7720
  1220  013F                     l2907:	
  1221                           ;TCC_escravo.c: 585: case 5: RB6=!(RB4^RB7); break;
  1222                           
  1223  013F  1F86               	btfss	6,7	;volatile
  1224  0140  2943               	goto	u7680
  1225  0141  3001               	movlw	1
  1226  0142  2944               	goto	u7682
  1227  0143                     u7680:	
  1228  0143  3000               	movlw	0
  1229  0144                     u7682:	
  1230  0144  00A0               	movwf	??_select_portas
  1231  0145  1E06               	btfss	6,4	;volatile
  1232  0146  2949               	goto	u7690
  1233  0147  3001               	movlw	1
  1234  0148  294A               	goto	u7692
  1235  0149                     u7690:	
  1236  0149  3000               	movlw	0
  1237  014A                     u7692:	
  1238  014A  0620               	xorwf	??_select_portas,w
  1239  014B                     L30:	
  1240  014B  1903               	skipnz
  1241  014C  2950               	goto	L18
  1242  014D  2954               	goto	u7720
  1243  014E                     l392:	
  1244                           ;TCC_escravo.c: 586: case 6: RB6=(!RB7); break;
  1245                           
  1246  014E  1B86               	btfsc	6,7	;volatile
  1247  014F  2954               	goto	u7720
  1248  0150                     L18:	
  1249  0150  1283               	bcf	3,5	;RP0=0, select bank0
  1250  0151  1303               	bcf	3,6	;RP1=0, select bank0
  1251  0152  1706               	bsf	6,6	;volatile
  1252  0153  29A1               	goto	l2927
  1253  0154                     u7720:	
  1254  0154  1283               	bcf	3,5	;RP0=0, select bank0
  1255  0155  1303               	bcf	3,6	;RP1=0, select bank0
  1256  0156  1306               	bcf	6,6	;volatile
  1257                           
  1258                           ;TCC_escravo.c: 587: }
  1259  0157  29A1               	goto	l2927
  1260  0158                     l2911:	
  1261  0158  0878               	movf	_PORTA3,w
  1262                           
  1263                           ; Switch size 1, requested type "space"
  1264                           ; Number of cases is 7, Range of values is 0 to 6
  1265                           ; switch strategies available:
  1266                           ; Name         Instructions Cycles
  1267                           ; direct_byte           21     7 (fixed)
  1268                           ; simple_byte           22    12 (average)
  1269                           ; jumptable            260     6 (fixed)
  1270                           ; rangetable            11     6 (fixed)
  1271                           ; spacedrange           20     9 (fixed)
  1272                           ; locatedrange           7     3 (fixed)
  1273                           ;	Chosen strategy is direct_byte
  1274  0159  0084               	movwf	4
  1275  015A  3007               	movlw	7
  1276  015B  0204               	subwf	4,w
  1277  015C  1803               	skipnc
  1278  015D  29A1               	goto	l2927
  1279  015E  3008               	movlw	high S3155
  1280  015F  008A               	movwf	10
  1281  0160  1003               	clrc
  1282  0161  0D04               	rlf	4,w
  1283  0162  3E1C               	addlw	low S3155
  1284  0163  0082               	movwf	2
  1285                           
  1286                           ;TCC_escravo.c: 588: switch(PORTA4){
  1287  0164  29A1               	goto	l2927
  1288  0165                     l2913:	
  1289                           ;TCC_escravo.c: 589: case 0: RC2=(RC0&RC1); break;
  1290                           
  1291  0165  3001               	movlw	1
  1292  0166  1C07               	btfss	7,0	;volatile
  1293  0167  3900               	andlw	0
  1294  0168  1C87               	btfss	7,1	;volatile
  1295  0169  3900               	andlw	0
  1296  016A  2976               	goto	L31
  1297  016B                     l2915:	
  1298                           ;TCC_escravo.c: 590: case 1: RC2=!(RC0&RC1); break;
  1299                           
  1300  016B  3001               	movlw	1
  1301  016C  1C07               	btfss	7,0	;volatile
  1302  016D  3900               	andlw	0
  1303  016E  1C87               	btfss	7,1	;volatile
  1304  016F  3900               	andlw	0
  1305  0170  2984               	goto	L32
  1306  0171                     l2917:	
  1307                           ;TCC_escravo.c: 591: case 2: RC2=(RC0|RC1); break;
  1308                           
  1309  0171  3000               	movlw	0
  1310  0172  1807               	btfsc	7,0	;volatile
  1311  0173  3801               	iorlw	1
  1312  0174  1887               	btfsc	7,1	;volatile
  1313  0175  3801               	iorlw	1
  1314  0176                     L31:	
  1315  0176  3800               	iorlw	0
  1316  0177  2994               	goto	L33
  1317  0178                     l2919:	
  1318                           ;TCC_escravo.c: 592: case 3: RC2=!(RC0|RC1); break;
  1319                           
  1320  0178  1C87               	btfss	7,1	;volatile
  1321  0179  297C               	goto	u7800
  1322  017A  3001               	movlw	1
  1323  017B  297D               	goto	u7802
  1324  017C                     u7800:	
  1325  017C  3000               	movlw	0
  1326  017D                     u7802:	
  1327  017D  00A0               	movwf	??_select_portas
  1328  017E  1C07               	btfss	7,0	;volatile
  1329  017F  2982               	goto	u7810
  1330  0180  3001               	movlw	1
  1331  0181  2983               	goto	u7812
  1332  0182                     u7810:	
  1333  0182  3000               	movlw	0
  1334  0183                     u7812:	
  1335  0183  0420               	iorwf	??_select_portas,w
  1336  0184                     L32:	
  1337  0184  3800               	iorlw	0
  1338  0185  1903               	skipnz
  1339  0186  2999               	goto	L24
  1340  0187  299D               	goto	u7920
  1341  0188                     l2921:	
  1342                           ;TCC_escravo.c: 593: case 4: RC2=(RC0^RC1); break;
  1343                           
  1344  0188                     l2923:	
  1345                           ;TCC_escravo.c: 594: case 5: RC2=(RC0^RC1); break;
  1346                           
  1347  0188  1C87               	btfss	7,1	;volatile
  1348  0189  298C               	goto	u7880
  1349  018A  3001               	movlw	1
  1350  018B  298D               	goto	u7882
  1351  018C                     u7880:	
  1352  018C  3000               	movlw	0
  1353  018D                     u7882:	
  1354  018D  00A0               	movwf	??_select_portas
  1355  018E  1C07               	btfss	7,0	;volatile
  1356  018F  2992               	goto	u7890
  1357  0190  3001               	movlw	1
  1358  0191  2993               	goto	u7892
  1359  0192                     u7890:	
  1360  0192  3000               	movlw	0
  1361  0193                     u7892:	
  1362  0193  0620               	xorwf	??_select_portas,w
  1363  0194                     L33:	
  1364  0194  1D03               	skipz
  1365  0195  2999               	goto	L24
  1366  0196  299D               	goto	u7920
  1367  0197                     l401:	
  1368                           ;TCC_escravo.c: 595: case 6: RC2=(!RC0); break;
  1369                           
  1370  0197  1807               	btfsc	7,0	;volatile
  1371  0198  299D               	goto	u7920
  1372  0199                     L24:	
  1373  0199  1283               	bcf	3,5	;RP0=0, select bank0
  1374  019A  1303               	bcf	3,6	;RP1=0, select bank0
  1375  019B  1507               	bsf	7,2	;volatile
  1376  019C  28AC               	goto	l2879
  1377  019D                     u7920:	
  1378  019D  1283               	bcf	3,5	;RP0=0, select bank0
  1379  019E  1303               	bcf	3,6	;RP1=0, select bank0
  1380  019F  1107               	bcf	7,2	;volatile
  1381                           
  1382                           ;TCC_escravo.c: 596: }
  1383  01A0  28AC               	goto	l2879
  1384  01A1                     l2927:	
  1385  01A1  0824               	movf	_PORTA4,w
  1386                           
  1387                           ; Switch size 1, requested type "space"
  1388                           ; Number of cases is 7, Range of values is 0 to 6
  1389                           ; switch strategies available:
  1390                           ; Name         Instructions Cycles
  1391                           ; direct_byte           21     7 (fixed)
  1392                           ; simple_byte           22    12 (average)
  1393                           ; jumptable            260     6 (fixed)
  1394                           ; rangetable            11     6 (fixed)
  1395                           ; spacedrange           20     9 (fixed)
  1396                           ; locatedrange           7     3 (fixed)
  1397                           ;	Chosen strategy is direct_byte
  1398  01A2  0084               	movwf	4
  1399  01A3  3007               	movlw	7
  1400  01A4  0204               	subwf	4,w
  1401  01A5  1803               	skipnc
  1402  01A6  28AC               	goto	l2879
  1403  01A7  3008               	movlw	high S3157
  1404  01A8  008A               	movwf	10
  1405  01A9  1003               	clrc
  1406  01AA  0D04               	rlf	4,w
  1407  01AB  3E2A               	addlw	low S3157
  1408  01AC  0082               	movwf	2
  1409  01AD  28AC               	goto	l2879
  1410  01AE                     __end_of_select_portas:	
  1411                           
  1412                           	psect	swtext1
  1413  0800                     __pswtext1:	
  1414  0800                     S3151:	
  1415  0800  118A  2863         	ljmp	l2865
  1416  0802  118A  2869         	ljmp	l2867
  1417  0804  118A  286F         	ljmp	l2869
  1418  0806  118A  2876         	ljmp	l2871
  1419  0808  118A  2884         	ljmp	l2873
  1420  080A  118A  2893         	ljmp	l2875
  1421  080C  118A  28A2         	ljmp	l374
  1422                           
  1423                           	psect	swtext2
  1424  080E                     __pswtext2:	
  1425  080E                     S3153:	
  1426  080E  118A  28B9         	ljmp	l2881
  1427  0810  118A  28BF         	ljmp	l2883
  1428  0812  118A  28C5         	ljmp	l2885
  1429  0814  118A  28CC         	ljmp	l2887
  1430  0816  118A  28DA         	ljmp	l2889
  1431  0818  118A  28E9         	ljmp	l2891
  1432  081A  118A  28F8         	ljmp	l383
  1433                           
  1434                           	psect	swtext3
  1435  081C                     __pswtext3:	
  1436  081C                     S3155:	
  1437  081C  118A  290F         	ljmp	l2897
  1438  081E  118A  2915         	ljmp	l2899
  1439  0820  118A  291B         	ljmp	l2901
  1440  0822  118A  2922         	ljmp	l2903
  1441  0824  118A  2930         	ljmp	l2905
  1442  0826  118A  293F         	ljmp	l2907
  1443  0828  118A  294E         	ljmp	l392
  1444                           
  1445                           	psect	swtext4
  1446  082A                     __pswtext4:	
  1447  082A                     S3157:	
  1448  082A  118A  2965         	ljmp	l2913
  1449  082C  118A  296B         	ljmp	l2915
  1450  082E  118A  2971         	ljmp	l2917
  1451  0830  118A  2978         	ljmp	l2919
  1452  0832  118A  2988         	ljmp	l2921
  1453  0834  118A  2988         	ljmp	l2923
  1454  0836  118A  2997         	ljmp	l401
  1455                           
  1456                           	psect	text2
  1457  01AE                     __ptext2:	
  1458 ;; *************** function _AX74192 *****************
  1459 ;; Defined at:
  1460 ;;		line 488 in file "TCC_escravo.c"
  1461 ;; Parameters:    Size  Location     Type
  1462 ;;		None
  1463 ;; Auto vars:     Size  Location     Type
  1464 ;;  num             1    1[BANK0 ] unsigned char 
  1465 ;; Return value:  Size  Location     Type
  1466 ;;		None               void
  1467 ;; Registers used:
  1468 ;;		wreg, status,2, status,0
  1469 ;; Tracked objects:
  1470 ;;		On entry : 0/0
  1471 ;;		On exit  : 0/0
  1472 ;;		Unchanged: 0/0
  1473 ;; Data sizes:     COMMON   BANK0   BANK1   BANK2
  1474 ;;      Params:         0       0       0       0
  1475 ;;      Locals:         0       1       0       0
  1476 ;;      Temps:          0       1       0       0
  1477 ;;      Totals:         0       2       0       0
  1478 ;;Total ram usage:        2 bytes
  1479 ;; Hardware stack levels used:    1
  1480 ;; Hardware stack levels required when called:    1
  1481 ;; This function calls:
  1482 ;;		Nothing
  1483 ;; This function is called by:
  1484 ;;		_main
  1485 ;; This function uses a non-reentrant model
  1486 ;;
  1487                           
  1488                           
  1489                           ;psect for function _AX74192
  1490  01AE                     _AX74192:	
  1491                           
  1492                           ;TCC_escravo.c: 489: RA0=1;
  1493                           
  1494                           ;incstack = 0
  1495                           ; Regs used in _AX74192: [wreg+status,2+status,0]
  1496  01AE  1283               	bcf	3,5	;RP0=0, select bank0
  1497  01AF  1303               	bcf	3,6	;RP1=0, select bank0
  1498  01B0  1405               	bsf	5,0	;volatile
  1499                           
  1500                           ;TCC_escravo.c: 490: TRISA=0b11011110;
  1501  01B1  30DE               	movlw	222
  1502  01B2  1683               	bsf	3,5	;RP0=1, select bank1
  1503  01B3  1303               	bcf	3,6	;RP1=0, select bank1
  1504  01B4  0085               	movwf	5	;volatile
  1505                           
  1506                           ;TCC_escravo.c: 491: TRISB=0b11111111;
  1507  01B5  30FF               	movlw	255
  1508  01B6  0086               	movwf	6	;volatile
  1509                           
  1510                           ;TCC_escravo.c: 492: TRISC=0b00011001;
  1511  01B7  3019               	movlw	25
  1512  01B8  0087               	movwf	7	;volatile
  1513                           
  1514                           ;TCC_escravo.c: 493: unsigned char num=0;
  1515  01B9  1283               	bcf	3,5	;RP0=0, select bank0
  1516  01BA  1303               	bcf	3,6	;RP1=0, select bank0
  1517  01BB  01A1               	clrf	AX74192@num
  1518                           
  1519                           ;TCC_escravo.c: 494: PORTA=0;
  1520  01BC  0185               	clrf	5	;volatile
  1521                           
  1522                           ;TCC_escravo.c: 495: PORTB=0;
  1523  01BD  0186               	clrf	6	;volatile
  1524                           
  1525                           ;TCC_escravo.c: 496: PORTC=0;
  1526  01BE  0187               	clrf	7	;volatile
  1527  01BF                     l2773:	
  1528                           ;TCC_escravo.c: 497: while(1){
  1529                           
  1530                           
  1531                           ;TCC_escravo.c: 498: if(!RC4 && (num==0)) RC1=0;
  1532  01BF  1A07               	btfsc	7,4	;volatile
  1533  01C0  29C6               	goto	l343
  1534  01C1  08A1               	movf	AX74192@num,f
  1535  01C2  1D03               	skipz
  1536  01C3  29C6               	goto	l343
  1537  01C4  1087               	bcf	7,1	;volatile
  1538  01C5  29C7               	goto	l344
  1539  01C6                     l343:	
  1540                           
  1541                           ;TCC_escravo.c: 499: else RC1=1;
  1542  01C6  1487               	bsf	7,1	;volatile
  1543  01C7                     l344:	
  1544                           
  1545                           ;TCC_escravo.c: 501: if(!RC3 && (num==9)) RC2=0;
  1546  01C7  1987               	btfsc	7,3	;volatile
  1547  01C8  29CF               	goto	l345
  1548  01C9  0821               	movf	AX74192@num,w
  1549  01CA  3A09               	xorlw	9
  1550  01CB  1D03               	skipz
  1551  01CC  29CF               	goto	l345
  1552  01CD  1107               	bcf	7,2	;volatile
  1553  01CE  29D0               	goto	l346
  1554  01CF                     l345:	
  1555                           
  1556                           ;TCC_escravo.c: 502: else RC2=1;
  1557  01CF  1507               	bsf	7,2	;volatile
  1558  01D0                     l346:	
  1559                           
  1560                           ;TCC_escravo.c: 504: if(!RC3) up1=0;
  1561  01D0  1D87               	btfss	7,3	;volatile
  1562  01D1  1079               	bcf	_up1/(0+8),_up1& (0+7)
  1563                           
  1564                           ;TCC_escravo.c: 505: if(!RC4) up2=0;
  1565  01D2  1E07               	btfss	7,4	;volatile
  1566  01D3  10F9               	bcf	_up2/(0+8),_up2& (0+7)
  1567                           
  1568                           ;TCC_escravo.c: 507: if(RB4 && !RC0){
  1569  01D4  1A06               	btfsc	6,4	;volatile
  1570  01D5  1807               	btfsc	7,0	;volatile
  1571  01D6  2A65               	goto	l349
  1572                           
  1573                           ;TCC_escravo.c: 508: if(RC4 && RC3 && !up2){
  1574  01D7  1A07               	btfsc	7,4	;volatile
  1575  01D8  1D87               	btfss	7,3	;volatile
  1576  01D9  2A23               	goto	l2809
  1577  01DA  18F9               	btfsc	_up2/(0+8),_up2& (0+7)
  1578  01DB  2A23               	goto	l2809
  1579                           
  1580                           ;TCC_escravo.c: 509: up2=1;
  1581  01DC  14F9               	bsf	_up2/(0+8),_up2& (0+7)
  1582                           
  1583                           ;TCC_escravo.c: 510: if (--num==0xFF) num=9;
  1584  01DD  3001               	movlw	1
  1585  01DE  02A1               	subwf	AX74192@num,f
  1586  01DF  0821               	movf	AX74192@num,w
  1587  01E0  3AFF               	xorlw	255
  1588  01E1  1D03               	skipz
  1589  01E2  29E7               	goto	l2801
  1590  01E3  3009               	movlw	9
  1591  01E4  00A0               	movwf	??_AX74192
  1592  01E5  0820               	movf	??_AX74192,w
  1593  01E6  00A1               	movwf	AX74192@num
  1594  01E7                     l2801:	
  1595                           
  1596                           ;TCC_escravo.c: 511: RC5=(num);
  1597  01E7  1C21               	btfss	AX74192@num,0
  1598  01E8  29ED               	goto	u6700
  1599  01E9  1283               	bcf	3,5	;RP0=0, select bank0
  1600  01EA  1303               	bcf	3,6	;RP1=0, select bank0
  1601  01EB  1687               	bsf	7,5	;volatile
  1602  01EC  29F0               	goto	l2803
  1603  01ED                     u6700:	
  1604  01ED  1283               	bcf	3,5	;RP0=0, select bank0
  1605  01EE  1303               	bcf	3,6	;RP1=0, select bank0
  1606  01EF  1287               	bcf	7,5	;volatile
  1607  01F0                     l2803:	
  1608                           
  1609                           ;TCC_escravo.c: 512: RA5=(num>>1);
  1610  01F0  0821               	movf	AX74192@num,w
  1611  01F1  00A0               	movwf	??_AX74192
  1612  01F2  3001               	movlw	1
  1613  01F3                     u6725:	
  1614  01F3  1003               	clrc
  1615  01F4  0CA0               	rrf	??_AX74192,f
  1616  01F5  3EFF               	addlw	-1
  1617  01F6  1D03               	skipz
  1618  01F7  29F3               	goto	u6725
  1619  01F8  1C20               	btfss	??_AX74192,0
  1620  01F9  29FE               	goto	u6730
  1621  01FA  1283               	bcf	3,5	;RP0=0, select bank0
  1622  01FB  1303               	bcf	3,6	;RP1=0, select bank0
  1623  01FC  1685               	bsf	5,5	;volatile
  1624  01FD  2A01               	goto	l2805
  1625  01FE                     u6730:	
  1626  01FE  1283               	bcf	3,5	;RP0=0, select bank0
  1627  01FF  1303               	bcf	3,6	;RP1=0, select bank0
  1628  0200  1285               	bcf	5,5	;volatile
  1629  0201                     l2805:	
  1630                           
  1631                           ;TCC_escravo.c: 513: RC6=(num>>2);
  1632  0201  0821               	movf	AX74192@num,w
  1633  0202  00A0               	movwf	??_AX74192
  1634  0203  3002               	movlw	2
  1635  0204                     u6755:	
  1636  0204  1003               	clrc
  1637  0205  0CA0               	rrf	??_AX74192,f
  1638  0206  3EFF               	addlw	-1
  1639  0207  1D03               	skipz
  1640  0208  2A04               	goto	u6755
  1641  0209  1C20               	btfss	??_AX74192,0
  1642  020A  2A0F               	goto	u6760
  1643  020B  1283               	bcf	3,5	;RP0=0, select bank0
  1644  020C  1303               	bcf	3,6	;RP1=0, select bank0
  1645  020D  1707               	bsf	7,6	;volatile
  1646  020E  2A12               	goto	l2807
  1647  020F                     u6760:	
  1648  020F  1283               	bcf	3,5	;RP0=0, select bank0
  1649  0210  1303               	bcf	3,6	;RP1=0, select bank0
  1650  0211  1307               	bcf	7,6	;volatile
  1651  0212                     l2807:	
  1652                           
  1653                           ;TCC_escravo.c: 514: RC7=(num>>3);
  1654  0212  0821               	movf	AX74192@num,w
  1655  0213  00A0               	movwf	??_AX74192
  1656  0214  3003               	movlw	3
  1657  0215                     u6785:	
  1658  0215  1003               	clrc
  1659  0216  0CA0               	rrf	??_AX74192,f
  1660  0217  3EFF               	addlw	-1
  1661  0218  1D03               	skipz
  1662  0219  2A15               	goto	u6785
  1663  021A  1C20               	btfss	??_AX74192,0
  1664  021B  2A20               	goto	u6790
  1665  021C  1283               	bcf	3,5	;RP0=0, select bank0
  1666  021D  1303               	bcf	3,6	;RP1=0, select bank0
  1667  021E  1787               	bsf	7,7	;volatile
  1668  021F  2A23               	goto	l2809
  1669  0220                     u6790:	
  1670  0220  1283               	bcf	3,5	;RP0=0, select bank0
  1671  0221  1303               	bcf	3,6	;RP1=0, select bank0
  1672  0222  1387               	bcf	7,7	;volatile
  1673  0223                     l2809:	
  1674                           
  1675                           ;TCC_escravo.c: 515: }
  1676                           ;TCC_escravo.c: 517: if(RC4 && RC3 && !up1){
  1677  0223  1A07               	btfsc	7,4	;volatile
  1678  0224  1D87               	btfss	7,3	;volatile
  1679  0225  29BF               	goto	l2773
  1680  0226  1879               	btfsc	_up1/(0+8),_up1& (0+7)
  1681  0227  29BF               	goto	l2773
  1682                           
  1683                           ;TCC_escravo.c: 518: up1=1;
  1684  0228  1479               	bsf	_up1/(0+8),_up1& (0+7)
  1685                           
  1686                           ;TCC_escravo.c: 519: if (++num==10) num=0;
  1687  0229  3001               	movlw	1
  1688  022A  00A0               	movwf	??_AX74192
  1689  022B  0820               	movf	??_AX74192,w
  1690  022C  07A1               	addwf	AX74192@num,f
  1691  022D  0821               	movf	AX74192@num,w
  1692  022E  3A0A               	xorlw	10
  1693  022F  1903               	btfsc	3,2
  1694  0230  01A1               	clrf	AX74192@num
  1695                           
  1696                           ;TCC_escravo.c: 520: RC5=(num);
  1697  0231  1C21               	btfss	AX74192@num,0
  1698  0232  2A37               	goto	u6850
  1699  0233  1283               	bcf	3,5	;RP0=0, select bank0
  1700  0234  1303               	bcf	3,6	;RP1=0, select bank0
  1701  0235  1687               	bsf	7,5	;volatile
  1702  0236  2A3A               	goto	l2823
  1703  0237                     u6850:	
  1704  0237  1283               	bcf	3,5	;RP0=0, select bank0
  1705  0238  1303               	bcf	3,6	;RP1=0, select bank0
  1706  0239  1287               	bcf	7,5	;volatile
  1707  023A                     l2823:	
  1708                           
  1709                           ;TCC_escravo.c: 521: RA5=(num>>1);
  1710  023A  0821               	movf	AX74192@num,w
  1711  023B  00A0               	movwf	??_AX74192
  1712  023C  3001               	movlw	1
  1713  023D                     u6875:	
  1714  023D  1003               	clrc
  1715  023E  0CA0               	rrf	??_AX74192,f
  1716  023F  3EFF               	addlw	-1
  1717  0240  1D03               	skipz
  1718  0241  2A3D               	goto	u6875
  1719  0242  1C20               	btfss	??_AX74192,0
  1720  0243  2A48               	goto	u6880
  1721  0244  1283               	bcf	3,5	;RP0=0, select bank0
  1722  0245  1303               	bcf	3,6	;RP1=0, select bank0
  1723  0246  1685               	bsf	5,5	;volatile
  1724  0247  2A4B               	goto	l2825
  1725  0248                     u6880:	
  1726  0248  1283               	bcf	3,5	;RP0=0, select bank0
  1727  0249  1303               	bcf	3,6	;RP1=0, select bank0
  1728  024A  1285               	bcf	5,5	;volatile
  1729  024B                     l2825:	
  1730                           
  1731                           ;TCC_escravo.c: 522: RC6=(num>>2);
  1732  024B  0821               	movf	AX74192@num,w
  1733  024C  00A0               	movwf	??_AX74192
  1734  024D  3002               	movlw	2
  1735  024E                     u6905:	
  1736  024E  1003               	clrc
  1737  024F  0CA0               	rrf	??_AX74192,f
  1738  0250  3EFF               	addlw	-1
  1739  0251  1D03               	skipz
  1740  0252  2A4E               	goto	u6905
  1741  0253  1C20               	btfss	??_AX74192,0
  1742  0254  2A59               	goto	u6910
  1743  0255  1283               	bcf	3,5	;RP0=0, select bank0
  1744  0256  1303               	bcf	3,6	;RP1=0, select bank0
  1745  0257  1707               	bsf	7,6	;volatile
  1746  0258  2A5C               	goto	l2827
  1747  0259                     u6910:	
  1748  0259  1283               	bcf	3,5	;RP0=0, select bank0
  1749  025A  1303               	bcf	3,6	;RP1=0, select bank0
  1750  025B  1307               	bcf	7,6	;volatile
  1751  025C                     l2827:	
  1752                           
  1753                           ;TCC_escravo.c: 523: RC7=(num>>3);
  1754  025C  0821               	movf	AX74192@num,w
  1755  025D  00A0               	movwf	??_AX74192
  1756  025E  3003               	movlw	3
  1757  025F                     u6935:	
  1758  025F  1003               	clrc
  1759  0260  0CA0               	rrf	??_AX74192,f
  1760  0261  3EFF               	addlw	-1
  1761  0262  1D03               	skipz
  1762  0263  2A5F               	goto	u6935
  1763  0264  2AA5               	goto	L41
  1764  0265                     l349:	
  1765                           ;TCC_escravo.c: 524: }
  1766                           ;TCC_escravo.c: 525: }
  1767                           
  1768                           
  1769                           ;TCC_escravo.c: 526: else{
  1770                           ;TCC_escravo.c: 527: if(!RB4){
  1771  0265  1A06               	btfsc	6,4	;volatile
  1772  0266  29BF               	goto	l2773
  1773                           
  1774                           ;TCC_escravo.c: 528: up1=1;
  1775  0267  1479               	bsf	_up1/(0+8),_up1& (0+7)
  1776                           
  1777                           ;TCC_escravo.c: 529: up2=1;
  1778  0268  14F9               	bsf	_up2/(0+8),_up2& (0+7)
  1779                           
  1780                           ;TCC_escravo.c: 530: num=0;
  1781  0269  01A1               	clrf	AX74192@num
  1782                           
  1783                           ;TCC_escravo.c: 531: if(RA2) num|=0b00000001;
  1784  026A  1905               	btfsc	5,2	;volatile
  1785  026B  1421               	bsf	AX74192@num,0
  1786                           
  1787                           ;TCC_escravo.c: 532: if(RA4) num|=0b00000010;
  1788  026C  1A05               	btfsc	5,4	;volatile
  1789  026D  14A1               	bsf	AX74192@num,1
  1790                           
  1791                           ;TCC_escravo.c: 533: if(RB5) num|=0b00000100;
  1792  026E  1A86               	btfsc	6,5	;volatile
  1793  026F  1521               	bsf	AX74192@num,2
  1794                           
  1795                           ;TCC_escravo.c: 534: if(RB6) num|=0b00001000;
  1796  0270  1B06               	btfsc	6,6	;volatile
  1797  0271  15A1               	bsf	AX74192@num,3
  1798                           
  1799                           ;TCC_escravo.c: 535: RC5=(num);
  1800  0272  1C21               	btfss	AX74192@num,0
  1801  0273  2A78               	goto	u7010
  1802  0274  1283               	bcf	3,5	;RP0=0, select bank0
  1803  0275  1303               	bcf	3,6	;RP1=0, select bank0
  1804  0276  1687               	bsf	7,5	;volatile
  1805  0277  2A7B               	goto	l2843
  1806  0278                     u7010:	
  1807  0278  1283               	bcf	3,5	;RP0=0, select bank0
  1808  0279  1303               	bcf	3,6	;RP1=0, select bank0
  1809  027A  1287               	bcf	7,5	;volatile
  1810  027B                     l2843:	
  1811                           
  1812                           ;TCC_escravo.c: 536: RA5=(num>>1);
  1813  027B  0821               	movf	AX74192@num,w
  1814  027C  00A0               	movwf	??_AX74192
  1815  027D  3001               	movlw	1
  1816  027E                     u7035:	
  1817  027E  1003               	clrc
  1818  027F  0CA0               	rrf	??_AX74192,f
  1819  0280  3EFF               	addlw	-1
  1820  0281  1D03               	skipz
  1821  0282  2A7E               	goto	u7035
  1822  0283  1C20               	btfss	??_AX74192,0
  1823  0284  2A89               	goto	u7040
  1824  0285  1283               	bcf	3,5	;RP0=0, select bank0
  1825  0286  1303               	bcf	3,6	;RP1=0, select bank0
  1826  0287  1685               	bsf	5,5	;volatile
  1827  0288  2A8C               	goto	u7054
  1828  0289                     u7040:	
  1829  0289  1283               	bcf	3,5	;RP0=0, select bank0
  1830  028A  1303               	bcf	3,6	;RP1=0, select bank0
  1831  028B  1285               	bcf	5,5	;volatile
  1832  028C                     u7054:	
  1833                           
  1834                           ;TCC_escravo.c: 537: RC6=(num>>2);
  1835  028C  0821               	movf	AX74192@num,w
  1836  028D  00A0               	movwf	??_AX74192
  1837  028E  3002               	movlw	2
  1838  028F                     u7065:	
  1839  028F  1003               	clrc
  1840  0290  0CA0               	rrf	??_AX74192,f
  1841  0291  3EFF               	addlw	-1
  1842  0292  1D03               	skipz
  1843  0293  2A8F               	goto	u7065
  1844  0294  1C20               	btfss	??_AX74192,0
  1845  0295  2A9A               	goto	u7070
  1846  0296  1283               	bcf	3,5	;RP0=0, select bank0
  1847  0297  1303               	bcf	3,6	;RP1=0, select bank0
  1848  0298  1707               	bsf	7,6	;volatile
  1849  0299  2A9D               	goto	u7084
  1850  029A                     u7070:	
  1851  029A  1283               	bcf	3,5	;RP0=0, select bank0
  1852  029B  1303               	bcf	3,6	;RP1=0, select bank0
  1853  029C  1307               	bcf	7,6	;volatile
  1854  029D                     u7084:	
  1855                           
  1856                           ;TCC_escravo.c: 538: RC7=(num>>3);
  1857  029D  0821               	movf	AX74192@num,w
  1858  029E  00A0               	movwf	??_AX74192
  1859  029F  3003               	movlw	3
  1860  02A0                     u7095:	
  1861  02A0  1003               	clrc
  1862  02A1  0CA0               	rrf	??_AX74192,f
  1863  02A2  3EFF               	addlw	-1
  1864  02A3  1D03               	skipz
  1865  02A4  2AA0               	goto	u7095
  1866  02A5                     L41:	
  1867  02A5  1C20               	btfss	??_AX74192,0
  1868  02A6  2AAB               	goto	u7100
  1869  02A7  1283               	bcf	3,5	;RP0=0, select bank0
  1870  02A8  1303               	bcf	3,6	;RP1=0, select bank0
  1871  02A9  1787               	bsf	7,7	;volatile
  1872  02AA  29BF               	goto	l2773
  1873  02AB                     u7100:	
  1874  02AB  1283               	bcf	3,5	;RP0=0, select bank0
  1875  02AC  1303               	bcf	3,6	;RP1=0, select bank0
  1876  02AD  1387               	bcf	7,7	;volatile
  1877  02AE  29BF               	goto	l2773
  1878  02AF                     __end_of_AX74192:	
  1879                           
  1880                           	psect	text3
  1881  02AF                     __ptext3:	
  1882 ;; *************** function _AX74191 *****************
  1883 ;; Defined at:
  1884 ;;		line 435 in file "TCC_escravo.c"
  1885 ;; Parameters:    Size  Location     Type
  1886 ;;		None
  1887 ;; Auto vars:     Size  Location     Type
  1888 ;;  num             1    1[BANK0 ] unsigned char 
  1889 ;; Return value:  Size  Location     Type
  1890 ;;		None               void
  1891 ;; Registers used:
  1892 ;;		wreg, status,2, status,0
  1893 ;; Tracked objects:
  1894 ;;		On entry : 0/0
  1895 ;;		On exit  : 0/0
  1896 ;;		Unchanged: 0/0
  1897 ;; Data sizes:     COMMON   BANK0   BANK1   BANK2
  1898 ;;      Params:         0       0       0       0
  1899 ;;      Locals:         0       1       0       0
  1900 ;;      Temps:          0       1       0       0
  1901 ;;      Totals:         0       2       0       0
  1902 ;;Total ram usage:        2 bytes
  1903 ;; Hardware stack levels used:    1
  1904 ;; Hardware stack levels required when called:    1
  1905 ;; This function calls:
  1906 ;;		Nothing
  1907 ;; This function is called by:
  1908 ;;		_main
  1909 ;; This function uses a non-reentrant model
  1910 ;;
  1911                           
  1912                           
  1913                           ;psect for function _AX74191
  1914  02AF                     _AX74191:	
  1915                           
  1916                           ;TCC_escravo.c: 436: RA0=1;
  1917                           
  1918                           ;incstack = 0
  1919                           ; Regs used in _AX74191: [wreg+status,2+status,0]
  1920  02AF  1283               	bcf	3,5	;RP0=0, select bank0
  1921  02B0  1303               	bcf	3,6	;RP1=0, select bank0
  1922  02B1  1405               	bsf	5,0	;volatile
  1923                           
  1924                           ;TCC_escravo.c: 437: TRISA=0b11011110;
  1925  02B2  30DE               	movlw	222
  1926  02B3  1683               	bsf	3,5	;RP0=1, select bank1
  1927  02B4  1303               	bcf	3,6	;RP1=0, select bank1
  1928  02B5  0085               	movwf	5	;volatile
  1929                           
  1930                           ;TCC_escravo.c: 438: TRISB=0b11111111;
  1931  02B6  30FF               	movlw	255
  1932  02B7  0086               	movwf	6	;volatile
  1933                           
  1934                           ;TCC_escravo.c: 439: TRISC=0b00011001;
  1935  02B8  3019               	movlw	25
  1936  02B9  0087               	movwf	7	;volatile
  1937                           
  1938                           ;TCC_escravo.c: 440: unsigned char num=0;
  1939  02BA  1283               	bcf	3,5	;RP0=0, select bank0
  1940  02BB  1303               	bcf	3,6	;RP1=0, select bank0
  1941  02BC  01A1               	clrf	AX74191@num
  1942                           
  1943                           ;TCC_escravo.c: 441: PORTA=0;
  1944  02BD  0185               	clrf	5	;volatile
  1945                           
  1946                           ;TCC_escravo.c: 442: PORTB=0;
  1947  02BE  0186               	clrf	6	;volatile
  1948                           
  1949                           ;TCC_escravo.c: 443: PORTC=0;
  1950  02BF  0187               	clrf	7	;volatile
  1951  02C0                     l2693:	
  1952                           ;TCC_escravo.c: 444: while(1){
  1953                           
  1954                           
  1955                           ;TCC_escravo.c: 445: if(!RC0 && !RC3 &&(num==15)) RC1=0;
  1956  02C0  1C07               	btfss	7,0	;volatile
  1957  02C1  1987               	btfsc	7,3	;volatile
  1958  02C2  2AC7               	goto	l316
  1959  02C3  0821               	movf	AX74191@num,w
  1960  02C4  3A0F               	xorlw	15
  1961  02C5  1903               	btfsc	3,2
  1962  02C6  2ACD               	goto	l2705
  1963  02C7                     l316:	
  1964                           
  1965                           ;TCC_escravo.c: 446: else if(!RC0 && RC3 &&(num==0)) RC1=0;
  1966  02C7  1C07               	btfss	7,0	;volatile
  1967  02C8  1D87               	btfss	7,3	;volatile
  1968  02C9  2ACF               	goto	l318
  1969  02CA  08A1               	movf	AX74191@num,f
  1970  02CB  1D03               	skipz
  1971  02CC  2ACF               	goto	l318
  1972  02CD                     l2705:	
  1973  02CD  1087               	bcf	7,1	;volatile
  1974  02CE  2AD0               	goto	l2707
  1975  02CF                     l318:	
  1976                           
  1977                           ;TCC_escravo.c: 447: else RC1=1;
  1978  02CF  1487               	bsf	7,1	;volatile
  1979  02D0                     l2707:	
  1980                           
  1981                           ;TCC_escravo.c: 449: if(num==15 && !RC3) RC2=1;
  1982  02D0  0821               	movf	AX74191@num,w
  1983  02D1  3A0F               	xorlw	15
  1984  02D2  1903               	btfsc	3,2
  1985  02D3  1987               	btfsc	7,3	;volatile
  1986  02D4  2AD6               	goto	l2713
  1987  02D5  2ADA               	goto	l2717
  1988  02D6                     l2713:	
  1989                           
  1990                           ;TCC_escravo.c: 450: else if(num==0 && RC3) RC2=1;
  1991  02D6  08A1               	movf	AX74191@num,f
  1992  02D7  1903               	btfsc	3,2
  1993  02D8  1D87               	btfss	7,3	;volatile
  1994  02D9  2ADC               	goto	l322
  1995  02DA                     l2717:	
  1996  02DA  1507               	bsf	7,2	;volatile
  1997  02DB  2ADD               	goto	l321
  1998  02DC                     l322:	
  1999                           
  2000                           ;TCC_escravo.c: 451: else RC2=0;
  2001  02DC  1107               	bcf	7,2	;volatile
  2002  02DD                     l321:	
  2003                           
  2004                           ;TCC_escravo.c: 453: if(!RC0) up1=0;
  2005  02DD  1C07               	btfss	7,0	;volatile
  2006  02DE  1079               	bcf	_up1/(0+8),_up1& (0+7)
  2007                           
  2008                           ;TCC_escravo.c: 455: if(!RC4 && RB4){
  2009  02DF  1E07               	btfss	7,4	;volatile
  2010  02E0  1E06               	btfss	6,4	;volatile
  2011  02E1  2B2F               	goto	l325
  2012                           
  2013                           ;TCC_escravo.c: 456: if(RC0 && !up1){
  2014  02E2  1807               	btfsc	7,0	;volatile
  2015  02E3  1879               	btfsc	_up1/(0+8),_up1& (0+7)
  2016  02E4  2AC0               	goto	l2693
  2017                           
  2018                           ;TCC_escravo.c: 457: up1=1;
  2019  02E5  1479               	bsf	_up1/(0+8),_up1& (0+7)
  2020                           
  2021                           ;TCC_escravo.c: 458: if(RC3){
  2022  02E6  1D87               	btfss	7,3	;volatile
  2023  02E7  2AF3               	goto	l2733
  2024                           
  2025                           ;TCC_escravo.c: 459: if (--num==0xFF) num=15;
  2026  02E8  3001               	movlw	1
  2027  02E9  02A1               	subwf	AX74191@num,f
  2028  02EA  0821               	movf	AX74191@num,w
  2029  02EB  3AFF               	xorlw	255
  2030  02EC  1D03               	skipz
  2031  02ED  2AFB               	goto	l2737
  2032  02EE  300F               	movlw	15
  2033  02EF  00A0               	movwf	??_AX74191
  2034  02F0  0820               	movf	??_AX74191,w
  2035  02F1  00A1               	movwf	AX74191@num
  2036                           
  2037                           ;TCC_escravo.c: 460: }
  2038  02F2  2AFB               	goto	l2737
  2039  02F3                     l2733:	
  2040                           
  2041                           ;TCC_escravo.c: 461: else{
  2042                           ;TCC_escravo.c: 462: if (++num==16) num=0;
  2043  02F3  3001               	movlw	1
  2044  02F4  00A0               	movwf	??_AX74191
  2045  02F5  0820               	movf	??_AX74191,w
  2046  02F6  07A1               	addwf	AX74191@num,f
  2047  02F7  0821               	movf	AX74191@num,w
  2048  02F8  3A10               	xorlw	16
  2049  02F9  1903               	btfsc	3,2
  2050  02FA  01A1               	clrf	AX74191@num
  2051  02FB                     l2737:	
  2052                           
  2053                           ;TCC_escravo.c: 463: }
  2054                           ;TCC_escravo.c: 464: RC5=(num);
  2055  02FB  1C21               	btfss	AX74191@num,0
  2056  02FC  2B01               	goto	u6310
  2057  02FD  1283               	bcf	3,5	;RP0=0, select bank0
  2058  02FE  1303               	bcf	3,6	;RP1=0, select bank0
  2059  02FF  1687               	bsf	7,5	;volatile
  2060  0300  2B04               	goto	l2739
  2061  0301                     u6310:	
  2062  0301  1283               	bcf	3,5	;RP0=0, select bank0
  2063  0302  1303               	bcf	3,6	;RP1=0, select bank0
  2064  0303  1287               	bcf	7,5	;volatile
  2065  0304                     l2739:	
  2066                           
  2067                           ;TCC_escravo.c: 465: RA5=(num>>1);
  2068  0304  0821               	movf	AX74191@num,w
  2069  0305  00A0               	movwf	??_AX74191
  2070  0306  3001               	movlw	1
  2071  0307                     u6335:	
  2072  0307  1003               	clrc
  2073  0308  0CA0               	rrf	??_AX74191,f
  2074  0309  3EFF               	addlw	-1
  2075  030A  1D03               	skipz
  2076  030B  2B07               	goto	u6335
  2077  030C  1C20               	btfss	??_AX74191,0
  2078  030D  2B12               	goto	u6340
  2079  030E  1283               	bcf	3,5	;RP0=0, select bank0
  2080  030F  1303               	bcf	3,6	;RP1=0, select bank0
  2081  0310  1685               	bsf	5,5	;volatile
  2082  0311  2B15               	goto	l2741
  2083  0312                     u6340:	
  2084  0312  1283               	bcf	3,5	;RP0=0, select bank0
  2085  0313  1303               	bcf	3,6	;RP1=0, select bank0
  2086  0314  1285               	bcf	5,5	;volatile
  2087  0315                     l2741:	
  2088                           
  2089                           ;TCC_escravo.c: 466: RC6=(num>>2);
  2090  0315  0821               	movf	AX74191@num,w
  2091  0316  00A0               	movwf	??_AX74191
  2092  0317  3002               	movlw	2
  2093  0318                     u6365:	
  2094  0318  1003               	clrc
  2095  0319  0CA0               	rrf	??_AX74191,f
  2096  031A  3EFF               	addlw	-1
  2097  031B  1D03               	skipz
  2098  031C  2B18               	goto	u6365
  2099  031D  1C20               	btfss	??_AX74191,0
  2100  031E  2B23               	goto	u6370
  2101  031F  1283               	bcf	3,5	;RP0=0, select bank0
  2102  0320  1303               	bcf	3,6	;RP1=0, select bank0
  2103  0321  1707               	bsf	7,6	;volatile
  2104  0322  2B26               	goto	l2743
  2105  0323                     u6370:	
  2106  0323  1283               	bcf	3,5	;RP0=0, select bank0
  2107  0324  1303               	bcf	3,6	;RP1=0, select bank0
  2108  0325  1307               	bcf	7,6	;volatile
  2109  0326                     l2743:	
  2110                           
  2111                           ;TCC_escravo.c: 467: RC7=(num>>3);
  2112  0326  0821               	movf	AX74191@num,w
  2113  0327  00A0               	movwf	??_AX74191
  2114  0328  3003               	movlw	3
  2115  0329                     u6395:	
  2116  0329  1003               	clrc
  2117  032A  0CA0               	rrf	??_AX74191,f
  2118  032B  3EFF               	addlw	-1
  2119  032C  1D03               	skipz
  2120  032D  2B29               	goto	u6395
  2121  032E  2B6E               	goto	L43
  2122  032F                     l325:	
  2123                           ;TCC_escravo.c: 468: }
  2124                           ;TCC_escravo.c: 469: }
  2125                           
  2126                           
  2127                           ;TCC_escravo.c: 470: else{
  2128                           ;TCC_escravo.c: 471: if(!RB4){
  2129  032F  1A06               	btfsc	6,4	;volatile
  2130  0330  2AC0               	goto	l2693
  2131                           
  2132                           ;TCC_escravo.c: 472: up1=1;
  2133  0331  1479               	bsf	_up1/(0+8),_up1& (0+7)
  2134                           
  2135                           ;TCC_escravo.c: 473: num=0;
  2136  0332  01A1               	clrf	AX74191@num
  2137                           
  2138                           ;TCC_escravo.c: 474: if(RA2) num|=0b00000001;
  2139  0333  1905               	btfsc	5,2	;volatile
  2140  0334  1421               	bsf	AX74191@num,0
  2141                           
  2142                           ;TCC_escravo.c: 475: if(RA4) num|=0b00000010;
  2143  0335  1A05               	btfsc	5,4	;volatile
  2144  0336  14A1               	bsf	AX74191@num,1
  2145                           
  2146                           ;TCC_escravo.c: 476: if(RB5) num|=0b00000100;
  2147  0337  1A86               	btfsc	6,5	;volatile
  2148  0338  1521               	bsf	AX74191@num,2
  2149                           
  2150                           ;TCC_escravo.c: 477: if(RB6) num|=0b00001000;
  2151  0339  1B06               	btfsc	6,6	;volatile
  2152  033A  15A1               	bsf	AX74191@num,3
  2153                           
  2154                           ;TCC_escravo.c: 478: RC5=(num);
  2155  033B  1C21               	btfss	AX74191@num,0
  2156  033C  2B41               	goto	u6470
  2157  033D  1283               	bcf	3,5	;RP0=0, select bank0
  2158  033E  1303               	bcf	3,6	;RP1=0, select bank0
  2159  033F  1687               	bsf	7,5	;volatile
  2160  0340  2B44               	goto	l2759
  2161  0341                     u6470:	
  2162  0341  1283               	bcf	3,5	;RP0=0, select bank0
  2163  0342  1303               	bcf	3,6	;RP1=0, select bank0
  2164  0343  1287               	bcf	7,5	;volatile
  2165  0344                     l2759:	
  2166                           
  2167                           ;TCC_escravo.c: 479: RA5=(num>>1);
  2168  0344  0821               	movf	AX74191@num,w
  2169  0345  00A0               	movwf	??_AX74191
  2170  0346  3001               	movlw	1
  2171  0347                     u6495:	
  2172  0347  1003               	clrc
  2173  0348  0CA0               	rrf	??_AX74191,f
  2174  0349  3EFF               	addlw	-1
  2175  034A  1D03               	skipz
  2176  034B  2B47               	goto	u6495
  2177  034C  1C20               	btfss	??_AX74191,0
  2178  034D  2B52               	goto	u6500
  2179  034E  1283               	bcf	3,5	;RP0=0, select bank0
  2180  034F  1303               	bcf	3,6	;RP1=0, select bank0
  2181  0350  1685               	bsf	5,5	;volatile
  2182  0351  2B55               	goto	u6514
  2183  0352                     u6500:	
  2184  0352  1283               	bcf	3,5	;RP0=0, select bank0
  2185  0353  1303               	bcf	3,6	;RP1=0, select bank0
  2186  0354  1285               	bcf	5,5	;volatile
  2187  0355                     u6514:	
  2188                           
  2189                           ;TCC_escravo.c: 480: RC6=(num>>2);
  2190  0355  0821               	movf	AX74191@num,w
  2191  0356  00A0               	movwf	??_AX74191
  2192  0357  3002               	movlw	2
  2193  0358                     u6525:	
  2194  0358  1003               	clrc
  2195  0359  0CA0               	rrf	??_AX74191,f
  2196  035A  3EFF               	addlw	-1
  2197  035B  1D03               	skipz
  2198  035C  2B58               	goto	u6525
  2199  035D  1C20               	btfss	??_AX74191,0
  2200  035E  2B63               	goto	u6530
  2201  035F  1283               	bcf	3,5	;RP0=0, select bank0
  2202  0360  1303               	bcf	3,6	;RP1=0, select bank0
  2203  0361  1707               	bsf	7,6	;volatile
  2204  0362  2B66               	goto	u6544
  2205  0363                     u6530:	
  2206  0363  1283               	bcf	3,5	;RP0=0, select bank0
  2207  0364  1303               	bcf	3,6	;RP1=0, select bank0
  2208  0365  1307               	bcf	7,6	;volatile
  2209  0366                     u6544:	
  2210                           
  2211                           ;TCC_escravo.c: 481: RC7=(num>>3);
  2212  0366  0821               	movf	AX74191@num,w
  2213  0367  00A0               	movwf	??_AX74191
  2214  0368  3003               	movlw	3
  2215  0369                     u6555:	
  2216  0369  1003               	clrc
  2217  036A  0CA0               	rrf	??_AX74191,f
  2218  036B  3EFF               	addlw	-1
  2219  036C  1D03               	skipz
  2220  036D  2B69               	goto	u6555
  2221  036E                     L43:	
  2222  036E  1C20               	btfss	??_AX74191,0
  2223  036F  2B74               	goto	u6560
  2224  0370  1283               	bcf	3,5	;RP0=0, select bank0
  2225  0371  1303               	bcf	3,6	;RP1=0, select bank0
  2226  0372  1787               	bsf	7,7	;volatile
  2227  0373  2AC0               	goto	l2693
  2228  0374                     u6560:	
  2229  0374  1283               	bcf	3,5	;RP0=0, select bank0
  2230  0375  1303               	bcf	3,6	;RP1=0, select bank0
  2231  0376  1387               	bcf	7,7	;volatile
  2232  0377  2AC0               	goto	l2693
  2233  0378                     __end_of_AX74191:	
  2234                           
  2235                           	psect	text4
  2236  0514                     __ptext4:	
  2237 ;; *************** function _AX74165 *****************
  2238 ;; Defined at:
  2239 ;;		line 393 in file "TCC_escravo.c"
  2240 ;; Parameters:    Size  Location     Type
  2241 ;;		None
  2242 ;; Auto vars:     Size  Location     Type
  2243 ;;  data            1    1[BANK0 ] unsigned char 
  2244 ;; Return value:  Size  Location     Type
  2245 ;;		None               void
  2246 ;; Registers used:
  2247 ;;		wreg, status,2, status,0
  2248 ;; Tracked objects:
  2249 ;;		On entry : 0/0
  2250 ;;		On exit  : 0/0
  2251 ;;		Unchanged: 0/0
  2252 ;; Data sizes:     COMMON   BANK0   BANK1   BANK2
  2253 ;;      Params:         0       0       0       0
  2254 ;;      Locals:         0       1       0       0
  2255 ;;      Temps:          0       1       0       0
  2256 ;;      Totals:         0       2       0       0
  2257 ;;Total ram usage:        2 bytes
  2258 ;; Hardware stack levels used:    1
  2259 ;; Hardware stack levels required when called:    1
  2260 ;; This function calls:
  2261 ;;		Nothing
  2262 ;; This function is called by:
  2263 ;;		_main
  2264 ;; This function uses a non-reentrant model
  2265 ;;
  2266                           
  2267                           
  2268                           ;psect for function _AX74165
  2269  0514                     _AX74165:	
  2270                           
  2271                           ;TCC_escravo.c: 394: RA0=1;
  2272                           
  2273                           ;incstack = 0
  2274                           ; Regs used in _AX74165: [wreg+status,2+status,0]
  2275  0514  1283               	bcf	3,5	;RP0=0, select bank0
  2276  0515  1303               	bcf	3,6	;RP1=0, select bank0
  2277  0516  1405               	bsf	5,0	;volatile
  2278                           
  2279                           ;TCC_escravo.c: 395: TRISA=0b11111110;
  2280  0517  30FE               	movlw	254
  2281  0518  1683               	bsf	3,5	;RP0=1, select bank1
  2282  0519  1303               	bcf	3,6	;RP1=0, select bank1
  2283  051A  0085               	movwf	5	;volatile
  2284                           
  2285                           ;TCC_escravo.c: 396: TRISB=0b10111111;
  2286  051B  30BF               	movlw	191
  2287  051C  0086               	movwf	6	;volatile
  2288                           
  2289                           ;TCC_escravo.c: 397: TRISC=0b01111111;
  2290  051D  307F               	movlw	127
  2291  051E  0087               	movwf	7	;volatile
  2292                           
  2293                           ;TCC_escravo.c: 398: unsigned char data=0;
  2294  051F  1283               	bcf	3,5	;RP0=0, select bank0
  2295  0520  1303               	bcf	3,6	;RP1=0, select bank0
  2296  0521  01A1               	clrf	AX74165@data
  2297                           
  2298                           ;TCC_escravo.c: 399: if(RB5) data|=0b10000000;
  2299  0522  1E86               	btfss	6,5	;volatile
  2300  0523  2D26               	goto	l2623
  2301  0524  17A1               	bsf	AX74165@data,7
  2302  0525  2D2A               	goto	l2625
  2303  0526                     l2623:	
  2304                           
  2305                           ;TCC_escravo.c: 400: else data&=0b01111111;
  2306  0526  307F               	movlw	127
  2307  0527  00A0               	movwf	??_AX74165
  2308  0528  0820               	movf	??_AX74165,w
  2309  0529  05A1               	andwf	AX74165@data,f
  2310  052A                     l2625:	
  2311                           
  2312                           ;TCC_escravo.c: 401: RB6=0;
  2313  052A  1306               	bcf	6,6	;volatile
  2314                           
  2315                           ;TCC_escravo.c: 402: RC7=1;
  2316  052B  1787               	bsf	7,7	;volatile
  2317  052C                     l2629:	
  2318                           ;TCC_escravo.c: 403: while(1){
  2319                           
  2320                           
  2321                           ;TCC_escravo.c: 404: if(!RA5) up1=0;
  2322  052C  1E85               	btfss	5,5	;volatile
  2323  052D  1079               	bcf	_up1/(0+8),_up1& (0+7)
  2324                           
  2325                           ;TCC_escravo.c: 405: if(RA2) up1=1;
  2326  052E  1905               	btfsc	5,2	;volatile
  2327  052F  1479               	bsf	_up1/(0+8),_up1& (0+7)
  2328                           
  2329                           ;TCC_escravo.c: 406: if(!RA4){
  2330  0530  1A05               	btfsc	5,4	;volatile
  2331  0531  2D68               	goto	l2665
  2332                           
  2333                           ;TCC_escravo.c: 407: up1=1;
  2334  0532  1479               	bsf	_up1/(0+8),_up1& (0+7)
  2335                           
  2336                           ;TCC_escravo.c: 408: data=0;
  2337  0533  01A1               	clrf	AX74165@data
  2338                           
  2339                           ;TCC_escravo.c: 409: if(RC6) data|=0b00000001;
  2340  0534  1F07               	btfss	7,6	;volatile
  2341  0535  2D37               	goto	l297
  2342  0536  1421               	bsf	AX74165@data,0
  2343  0537                     l297:	
  2344                           
  2345                           ;TCC_escravo.c: 410: if(RC3) data|=0b00000010;
  2346  0537  1D87               	btfss	7,3	;volatile
  2347  0538  2D3A               	goto	l298
  2348  0539  14A1               	bsf	AX74165@data,1
  2349  053A                     l298:	
  2350                           
  2351                           ;TCC_escravo.c: 411: if(RC4) data|=0b00000100;
  2352  053A  1E07               	btfss	7,4	;volatile
  2353  053B  2D3D               	goto	l299
  2354  053C  1521               	bsf	AX74165@data,2
  2355  053D                     l299:	
  2356                           
  2357                           ;TCC_escravo.c: 412: if(RC5) data|=0b00001000;
  2358  053D  1E87               	btfss	7,5	;volatile
  2359  053E  2D40               	goto	l300
  2360  053F  15A1               	bsf	AX74165@data,3
  2361  0540                     l300:	
  2362                           
  2363                           ;TCC_escravo.c: 413: if(RC0) data|=0b00010000;
  2364  0540  1C07               	btfss	7,0	;volatile
  2365  0541  2D43               	goto	l301
  2366  0542  1621               	bsf	AX74165@data,4
  2367  0543                     l301:	
  2368                           
  2369                           ;TCC_escravo.c: 414: if(RC1) data|=0b00100000;
  2370  0543  1C87               	btfss	7,1	;volatile
  2371  0544  2D46               	goto	l302
  2372  0545  16A1               	bsf	AX74165@data,5
  2373  0546                     l302:	
  2374                           
  2375                           ;TCC_escravo.c: 415: if(RC2) data|=0b01000000;
  2376  0546  1D07               	btfss	7,2	;volatile
  2377  0547  2D49               	goto	l303
  2378  0548  1721               	bsf	AX74165@data,6
  2379  0549                     l303:	
  2380                           
  2381                           ;TCC_escravo.c: 416: if(RB4) data|=0b10000000;
  2382  0549  1E06               	btfss	6,4	;volatile
  2383  054A  2D4C               	goto	l304
  2384  054B  17A1               	bsf	AX74165@data,7
  2385  054C                     l304:	
  2386                           
  2387                           ;TCC_escravo.c: 417: RB6=data;
  2388  054C  1C21               	btfss	AX74165@data,0
  2389  054D  2D52               	goto	u6010
  2390  054E  1283               	bcf	3,5	;RP0=0, select bank0
  2391  054F  1303               	bcf	3,6	;RP1=0, select bank0
  2392  0550  1706               	bsf	6,6	;volatile
  2393  0551  2D55               	goto	u6024
  2394  0552                     u6010:	
  2395  0552  1283               	bcf	3,5	;RP0=0, select bank0
  2396  0553  1303               	bcf	3,6	;RP1=0, select bank0
  2397  0554  1306               	bcf	6,6	;volatile
  2398  0555                     u6024:	
  2399                           
  2400                           ;TCC_escravo.c: 418: RC7=!RB6;
  2401  0555  1B06               	btfsc	6,6	;volatile
  2402  0556  2D5B               	goto	u6030
  2403  0557  1283               	bcf	3,5	;RP0=0, select bank0
  2404  0558  1303               	bcf	3,6	;RP1=0, select bank0
  2405  0559  1787               	bsf	7,7	;volatile
  2406  055A  2D5E               	goto	l2657
  2407  055B                     u6030:	
  2408  055B  1283               	bcf	3,5	;RP0=0, select bank0
  2409  055C  1303               	bcf	3,6	;RP1=0, select bank0
  2410  055D  1387               	bcf	7,7	;volatile
  2411  055E                     l2657:	
  2412                           
  2413                           ;TCC_escravo.c: 419: data>>=1;
  2414  055E  1003               	clrc
  2415  055F  0CA1               	rrf	AX74165@data,f
  2416                           
  2417                           ;TCC_escravo.c: 420: if(RB5) data|=0b10000000;
  2418  0560  1E86               	btfss	6,5	;volatile
  2419  0561  2D64               	goto	l2663
  2420  0562  17A1               	bsf	AX74165@data,7
  2421  0563  2D68               	goto	l2665
  2422  0564                     l2663:	
  2423                           
  2424                           ;TCC_escravo.c: 421: else data&=0b01111111;
  2425  0564  307F               	movlw	127
  2426  0565  00A0               	movwf	??_AX74165
  2427  0566  0820               	movf	??_AX74165,w
  2428  0567  05A1               	andwf	AX74165@data,f
  2429  0568                     l2665:	
  2430                           
  2431                           ;TCC_escravo.c: 422: }
  2432                           ;TCC_escravo.c: 423: if(RA5 && !up1){
  2433  0568  1A85               	btfsc	5,5	;volatile
  2434  0569  1879               	btfsc	_up1/(0+8),_up1& (0+7)
  2435  056A  2D2C               	goto	l2629
  2436                           
  2437                           ;TCC_escravo.c: 424: up1=1;
  2438  056B  1479               	bsf	_up1/(0+8),_up1& (0+7)
  2439                           
  2440                           ;TCC_escravo.c: 425: if(RB5) data|=0b10000000;
  2441  056C  1E86               	btfss	6,5	;volatile
  2442  056D  2D70               	goto	l2673
  2443  056E  17A1               	bsf	AX74165@data,7
  2444  056F  2D74               	goto	l2675
  2445  0570                     l2673:	
  2446                           
  2447                           ;TCC_escravo.c: 426: else data&=0b01111111;
  2448  0570  307F               	movlw	127
  2449  0571  00A0               	movwf	??_AX74165
  2450  0572  0820               	movf	??_AX74165,w
  2451  0573  05A1               	andwf	AX74165@data,f
  2452  0574                     l2675:	
  2453                           
  2454                           ;TCC_escravo.c: 427: RB6=data;
  2455  0574  1C21               	btfss	AX74165@data,0
  2456  0575  2D7A               	goto	u6090
  2457  0576  1283               	bcf	3,5	;RP0=0, select bank0
  2458  0577  1303               	bcf	3,6	;RP1=0, select bank0
  2459  0578  1706               	bsf	6,6	;volatile
  2460  0579  2D7D               	goto	l2677
  2461  057A                     u6090:	
  2462  057A  1283               	bcf	3,5	;RP0=0, select bank0
  2463  057B  1303               	bcf	3,6	;RP1=0, select bank0
  2464  057C  1306               	bcf	6,6	;volatile
  2465  057D                     l2677:	
  2466                           
  2467                           ;TCC_escravo.c: 428: RC7=!RB6;
  2468  057D  1B06               	btfsc	6,6	;volatile
  2469  057E  2D83               	goto	u6110
  2470  057F  1283               	bcf	3,5	;RP0=0, select bank0
  2471  0580  1303               	bcf	3,6	;RP1=0, select bank0
  2472  0581  1787               	bsf	7,7	;volatile
  2473  0582  2D86               	goto	l2679
  2474  0583                     u6110:	
  2475  0583  1283               	bcf	3,5	;RP0=0, select bank0
  2476  0584  1303               	bcf	3,6	;RP1=0, select bank0
  2477  0585  1387               	bcf	7,7	;volatile
  2478  0586                     l2679:	
  2479                           
  2480                           ;TCC_escravo.c: 429: data>>=1;
  2481  0586  1003               	clrc
  2482  0587  0CA1               	rrf	AX74165@data,f
  2483  0588  2D2C               	goto	l2629
  2484  0589                     __end_of_AX74165:	
  2485                           
  2486                           	psect	text5
  2487  0589                     __ptext5:	
  2488 ;; *************** function _AX7486 *****************
  2489 ;; Defined at:
  2490 ;;		line 380 in file "TCC_escravo.c"
  2491 ;; Parameters:    Size  Location     Type
  2492 ;;		None
  2493 ;; Auto vars:     Size  Location     Type
  2494 ;;		None
  2495 ;; Return value:  Size  Location     Type
  2496 ;;		None               void
  2497 ;; Registers used:
  2498 ;;		wreg
  2499 ;; Tracked objects:
  2500 ;;		On entry : 0/0
  2501 ;;		On exit  : 0/0
  2502 ;;		Unchanged: 0/0
  2503 ;; Data sizes:     COMMON   BANK0   BANK1   BANK2
  2504 ;;      Params:         0       0       0       0
  2505 ;;      Locals:         0       0       0       0
  2506 ;;      Temps:          0       1       0       0
  2507 ;;      Totals:         0       1       0       0
  2508 ;;Total ram usage:        1 bytes
  2509 ;; Hardware stack levels used:    1
  2510 ;; Hardware stack levels required when called:    1
  2511 ;; This function calls:
  2512 ;;		Nothing
  2513 ;; This function is called by:
  2514 ;;		_main
  2515 ;; This function uses a non-reentrant model
  2516 ;;
  2517                           
  2518                           
  2519                           ;psect for function _AX7486
  2520  0589                     _AX7486:	
  2521                           
  2522                           ;TCC_escravo.c: 381: RA0=0;
  2523                           
  2524                           ;incstack = 0
  2525                           ; Regs used in _AX7486: [wreg]
  2526  0589  1283               	bcf	3,5	;RP0=0, select bank0
  2527  058A  1303               	bcf	3,6	;RP1=0, select bank0
  2528  058B  1005               	bcf	5,0	;volatile
  2529                           
  2530                           ;TCC_escravo.c: 382: TRISA=0b11111110;
  2531  058C  30FE               	movlw	254
  2532  058D  1683               	bsf	3,5	;RP0=1, select bank1
  2533  058E  1303               	bcf	3,6	;RP1=0, select bank1
  2534  058F  0085               	movwf	5	;volatile
  2535                           
  2536                           ;TCC_escravo.c: 383: TRISB=0b10111111;
  2537  0590  30BF               	movlw	191
  2538  0591  0086               	movwf	6	;volatile
  2539                           
  2540                           ;TCC_escravo.c: 384: TRISC=0b01101011;
  2541  0592  306B               	movlw	107
  2542  0593  0087               	movwf	7	;volatile
  2543  0594                     l285:	
  2544                           ;TCC_escravo.c: 385: while(1){
  2545                           
  2546                           
  2547                           ;TCC_escravo.c: 386: RC4=(RA5^RC5);
  2548  0594  1283               	bcf	3,5	;RP0=0, select bank0
  2549  0595  1E87               	btfss	7,5	;volatile
  2550  0596  2D99               	goto	u5730
  2551  0597  3001               	movlw	1
  2552  0598  2D9A               	goto	u5732
  2553  0599                     u5730:	
  2554  0599  3000               	movlw	0
  2555  059A                     u5732:	
  2556  059A  00A0               	movwf	??_AX7486
  2557  059B  1E85               	btfss	5,5	;volatile
  2558  059C  2D9F               	goto	u5740
  2559  059D  3001               	movlw	1
  2560  059E  2DA0               	goto	u5742
  2561  059F                     u5740:	
  2562  059F  3000               	movlw	0
  2563  05A0                     u5742:	
  2564  05A0  0620               	xorwf	??_AX7486,w
  2565  05A1  1903               	btfsc	3,2
  2566  05A2  2DA7               	goto	u5750
  2567  05A3  1283               	bcf	3,5	;RP0=0, select bank0
  2568  05A4  1303               	bcf	3,6	;RP1=0, select bank0
  2569  05A5  1607               	bsf	7,4	;volatile
  2570  05A6  2DAA               	goto	u5764
  2571  05A7                     u5750:	
  2572  05A7  1283               	bcf	3,5	;RP0=0, select bank0
  2573  05A8  1303               	bcf	3,6	;RP1=0, select bank0
  2574  05A9  1207               	bcf	7,4	;volatile
  2575  05AA                     u5764:	
  2576                           
  2577                           ;TCC_escravo.c: 387: RC7=(RC3^RC6);
  2578  05AA  1F07               	btfss	7,6	;volatile
  2579  05AB  2DAE               	goto	u5770
  2580  05AC  3001               	movlw	1
  2581  05AD  2DAF               	goto	u5772
  2582  05AE                     u5770:	
  2583  05AE  3000               	movlw	0
  2584  05AF                     u5772:	
  2585  05AF  00A0               	movwf	??_AX7486
  2586  05B0  1D87               	btfss	7,3	;volatile
  2587  05B1  2DB4               	goto	u5780
  2588  05B2  3001               	movlw	1
  2589  05B3  2DB5               	goto	u5782
  2590  05B4                     u5780:	
  2591  05B4  3000               	movlw	0
  2592  05B5                     u5782:	
  2593  05B5  0620               	xorwf	??_AX7486,w
  2594  05B6  1903               	btfsc	3,2
  2595  05B7  2DBC               	goto	u5790
  2596  05B8  1283               	bcf	3,5	;RP0=0, select bank0
  2597  05B9  1303               	bcf	3,6	;RP1=0, select bank0
  2598  05BA  1787               	bsf	7,7	;volatile
  2599  05BB  2DBF               	goto	u5804
  2600  05BC                     u5790:	
  2601  05BC  1283               	bcf	3,5	;RP0=0, select bank0
  2602  05BD  1303               	bcf	3,6	;RP1=0, select bank0
  2603  05BE  1387               	bcf	7,7	;volatile
  2604  05BF                     u5804:	
  2605                           
  2606                           ;TCC_escravo.c: 388: RB6=(RB5^RB4);
  2607  05BF  1E06               	btfss	6,4	;volatile
  2608  05C0  2DC3               	goto	u5810
  2609  05C1  3001               	movlw	1
  2610  05C2  2DC4               	goto	u5812
  2611  05C3                     u5810:	
  2612  05C3  3000               	movlw	0
  2613  05C4                     u5812:	
  2614  05C4  00A0               	movwf	??_AX7486
  2615  05C5  1E86               	btfss	6,5	;volatile
  2616  05C6  2DC9               	goto	u5820
  2617  05C7  3001               	movlw	1
  2618  05C8  2DCA               	goto	u5822
  2619  05C9                     u5820:	
  2620  05C9  3000               	movlw	0
  2621  05CA                     u5822:	
  2622  05CA  0620               	xorwf	??_AX7486,w
  2623  05CB  1903               	btfsc	3,2
  2624  05CC  2DD1               	goto	u5830
  2625  05CD  1283               	bcf	3,5	;RP0=0, select bank0
  2626  05CE  1303               	bcf	3,6	;RP1=0, select bank0
  2627  05CF  1706               	bsf	6,6	;volatile
  2628  05D0  2DD4               	goto	u5844
  2629  05D1                     u5830:	
  2630  05D1  1283               	bcf	3,5	;RP0=0, select bank0
  2631  05D2  1303               	bcf	3,6	;RP1=0, select bank0
  2632  05D3  1306               	bcf	6,6	;volatile
  2633  05D4                     u5844:	
  2634                           
  2635                           ;TCC_escravo.c: 389: RC2=(RC1^RC0);
  2636  05D4  1C07               	btfss	7,0	;volatile
  2637  05D5  2DD8               	goto	u5850
  2638  05D6  3001               	movlw	1
  2639  05D7  2DD9               	goto	u5852
  2640  05D8                     u5850:	
  2641  05D8  3000               	movlw	0
  2642  05D9                     u5852:	
  2643  05D9  00A0               	movwf	??_AX7486
  2644  05DA  1C87               	btfss	7,1	;volatile
  2645  05DB  2DDE               	goto	u5860
  2646  05DC  3001               	movlw	1
  2647  05DD  2DDF               	goto	u5862
  2648  05DE                     u5860:	
  2649  05DE  3000               	movlw	0
  2650  05DF                     u5862:	
  2651  05DF  0620               	xorwf	??_AX7486,w
  2652  05E0  1903               	btfsc	3,2
  2653  05E1  2DE6               	goto	u5870
  2654  05E2  1283               	bcf	3,5	;RP0=0, select bank0
  2655  05E3  1303               	bcf	3,6	;RP1=0, select bank0
  2656  05E4  1507               	bsf	7,2	;volatile
  2657  05E5  2D94               	goto	l285
  2658  05E6                     u5870:	
  2659  05E6  1283               	bcf	3,5	;RP0=0, select bank0
  2660  05E7  1303               	bcf	3,6	;RP1=0, select bank0
  2661  05E8  1107               	bcf	7,2	;volatile
  2662  05E9  2D94               	goto	l285
  2663  05EA                     __end_of_AX7486:	
  2664                           
  2665                           	psect	text6
  2666  05EA                     __ptext6:	
  2667 ;; *************** function _AX7474 *****************
  2668 ;; Defined at:
  2669 ;;		line 325 in file "TCC_escravo.c"
  2670 ;; Parameters:    Size  Location     Type
  2671 ;;		None
  2672 ;; Auto vars:     Size  Location     Type
  2673 ;;		None
  2674 ;; Return value:  Size  Location     Type
  2675 ;;		None               void
  2676 ;; Registers used:
  2677 ;;		wreg
  2678 ;; Tracked objects:
  2679 ;;		On entry : 0/0
  2680 ;;		On exit  : 0/0
  2681 ;;		Unchanged: 0/0
  2682 ;; Data sizes:     COMMON   BANK0   BANK1   BANK2
  2683 ;;      Params:         0       0       0       0
  2684 ;;      Locals:         0       0       0       0
  2685 ;;      Temps:          0       0       0       0
  2686 ;;      Totals:         0       0       0       0
  2687 ;;Total ram usage:        0 bytes
  2688 ;; Hardware stack levels used:    1
  2689 ;; Hardware stack levels required when called:    1
  2690 ;; This function calls:
  2691 ;;		Nothing
  2692 ;; This function is called by:
  2693 ;;		_main
  2694 ;; This function uses a non-reentrant model
  2695 ;;
  2696                           
  2697                           
  2698                           ;psect for function _AX7474
  2699  05EA                     _AX7474:	
  2700                           
  2701                           ;TCC_escravo.c: 326: RA0=0;
  2702                           
  2703                           ;incstack = 0
  2704                           ; Regs used in _AX7474: [wreg]
  2705  05EA  1283               	bcf	3,5	;RP0=0, select bank0
  2706  05EB  1303               	bcf	3,6	;RP1=0, select bank0
  2707  05EC  1005               	bcf	5,0	;volatile
  2708                           
  2709                           ;TCC_escravo.c: 327: TRISA=0b11111110;
  2710  05ED  30FE               	movlw	254
  2711  05EE  1683               	bsf	3,5	;RP0=1, select bank1
  2712  05EF  1303               	bcf	3,6	;RP1=0, select bank1
  2713  05F0  0085               	movwf	5	;volatile
  2714                           
  2715                           ;TCC_escravo.c: 328: TRISB=0b10011111;
  2716  05F1  309F               	movlw	159
  2717  05F2  0086               	movwf	6	;volatile
  2718                           
  2719                           ;TCC_escravo.c: 329: TRISC=0b00111111;
  2720  05F3  303F               	movlw	63
  2721  05F4  0087               	movwf	7	;volatile
  2722  05F5                     l2563:	
  2723                           ;TCC_escravo.c: 330: while(1){
  2724                           
  2725                           
  2726                           ;TCC_escravo.c: 331: if(!RC4) up1=0;
  2727  05F5  1283               	bcf	3,5	;RP0=0, select bank0
  2728  05F6  1E07               	btfss	7,4	;volatile
  2729  05F7  1079               	bcf	_up1/(0+8),_up1& (0+7)
  2730                           
  2731                           ;TCC_escravo.c: 332: if(RA5 && RC3){
  2732  05F8  1A85               	btfsc	5,5	;volatile
  2733  05F9  1D87               	btfss	7,3	;volatile
  2734  05FA  2E11               	goto	l267
  2735                           
  2736                           ;TCC_escravo.c: 333: if(RC4 && !up1){
  2737  05FB  1A07               	btfsc	7,4	;volatile
  2738  05FC  1879               	btfsc	_up1/(0+8),_up1& (0+7)
  2739  05FD  2E20               	goto	l269
  2740                           
  2741                           ;TCC_escravo.c: 334: up1=1;
  2742  05FE  1479               	bsf	_up1/(0+8),_up1& (0+7)
  2743                           
  2744                           ;TCC_escravo.c: 335: RC6=RC5;
  2745  05FF  1E87               	btfss	7,5	;volatile
  2746  0600  2E05               	goto	u5480
  2747  0601  1283               	bcf	3,5	;RP0=0, select bank0
  2748  0602  1303               	bcf	3,6	;RP1=0, select bank0
  2749  0603  1707               	bsf	7,6	;volatile
  2750  0604  2E08               	goto	u5494
  2751  0605                     u5480:	
  2752  0605  1283               	bcf	3,5	;RP0=0, select bank0
  2753  0606  1303               	bcf	3,6	;RP1=0, select bank0
  2754  0607  1307               	bcf	7,6	;volatile
  2755  0608                     u5494:	
  2756                           
  2757                           ;TCC_escravo.c: 336: RC7=!RC6;
  2758  0608  1B07               	btfsc	7,6	;volatile
  2759  0609  2E0E               	goto	u5500
  2760  060A  1283               	bcf	3,5	;RP0=0, select bank0
  2761  060B  1303               	bcf	3,6	;RP1=0, select bank0
  2762  060C  1787               	bsf	7,7	;volatile
  2763  060D  2E20               	goto	l269
  2764  060E                     u5500:	
  2765  060E  1283               	bcf	3,5	;RP0=0, select bank0
  2766  060F  1303               	bcf	3,6	;RP1=0, select bank0
  2767  0610  2E1F               	goto	L44
  2768  0611                     l267:	
  2769                           ;TCC_escravo.c: 337: }
  2770                           ;TCC_escravo.c: 338: }
  2771                           
  2772                           
  2773                           ;TCC_escravo.c: 339: else{
  2774                           ;TCC_escravo.c: 340: if(!RA5 && !RC3){
  2775  0611  1E85               	btfss	5,5	;volatile
  2776  0612  1987               	btfsc	7,3	;volatile
  2777  0613  2E16               	goto	l270
  2778                           
  2779                           ;TCC_escravo.c: 341: RC6=1;
  2780  0614  1707               	bsf	7,6	;volatile
  2781                           
  2782                           ;TCC_escravo.c: 342: RC7=1;
  2783  0615  1787               	bsf	7,7	;volatile
  2784  0616                     l270:	
  2785                           
  2786                           ;TCC_escravo.c: 343: }
  2787                           ;TCC_escravo.c: 344: if(!RA5 && RC3){
  2788  0616  1E85               	btfss	5,5	;volatile
  2789  0617  1D87               	btfss	7,3	;volatile
  2790  0618  2E1B               	goto	l271
  2791                           
  2792                           ;TCC_escravo.c: 345: RC6=0;
  2793  0619  1307               	bcf	7,6	;volatile
  2794                           
  2795                           ;TCC_escravo.c: 346: RC7=1;
  2796  061A  1787               	bsf	7,7	;volatile
  2797  061B                     l271:	
  2798                           
  2799                           ;TCC_escravo.c: 347: }
  2800                           ;TCC_escravo.c: 348: if(RA5 && !RC3){
  2801  061B  1A85               	btfsc	5,5	;volatile
  2802  061C  1987               	btfsc	7,3	;volatile
  2803  061D  2E20               	goto	l269
  2804                           
  2805                           ;TCC_escravo.c: 349: RC6=1;
  2806  061E  1707               	bsf	7,6	;volatile
  2807  061F                     L44:	
  2808                           
  2809                           ;TCC_escravo.c: 350: RC7=0;
  2810  061F  1387               	bcf	7,7	;volatile
  2811  0620                     l269:	
  2812                           
  2813                           ;TCC_escravo.c: 351: }
  2814                           ;TCC_escravo.c: 352: }
  2815                           ;TCC_escravo.c: 354: if(!RC2) up2=0;
  2816  0620  1D07               	btfss	7,2	;volatile
  2817  0621  10F9               	bcf	_up2/(0+8),_up2& (0+7)
  2818                           
  2819                           ;TCC_escravo.c: 355: if(RC0 && RB4){
  2820  0622  1807               	btfsc	7,0	;volatile
  2821  0623  1E06               	btfss	6,4	;volatile
  2822  0624  2E3B               	goto	l274
  2823                           
  2824                           ;TCC_escravo.c: 356: if(RC2 && !up2){
  2825  0625  1907               	btfsc	7,2	;volatile
  2826  0626  18F9               	btfsc	_up2/(0+8),_up2& (0+7)
  2827  0627  2DF5               	goto	l2563
  2828                           
  2829                           ;TCC_escravo.c: 357: up2=1;
  2830  0628  14F9               	bsf	_up2/(0+8),_up2& (0+7)
  2831                           
  2832                           ;TCC_escravo.c: 358: RB5=RC1;
  2833  0629  1C87               	btfss	7,1	;volatile
  2834  062A  2E2F               	goto	u5630
  2835  062B  1283               	bcf	3,5	;RP0=0, select bank0
  2836  062C  1303               	bcf	3,6	;RP1=0, select bank0
  2837  062D  1686               	bsf	6,5	;volatile
  2838  062E  2E32               	goto	u5644
  2839  062F                     u5630:	
  2840  062F  1283               	bcf	3,5	;RP0=0, select bank0
  2841  0630  1303               	bcf	3,6	;RP1=0, select bank0
  2842  0631  1286               	bcf	6,5	;volatile
  2843  0632                     u5644:	
  2844                           
  2845                           ;TCC_escravo.c: 359: RB6=!RB5;
  2846  0632  1A86               	btfsc	6,5	;volatile
  2847  0633  2E38               	goto	u5650
  2848  0634  1283               	bcf	3,5	;RP0=0, select bank0
  2849  0635  1303               	bcf	3,6	;RP1=0, select bank0
  2850  0636  1706               	bsf	6,6	;volatile
  2851  0637  2DF5               	goto	l2563
  2852  0638                     u5650:	
  2853  0638  1283               	bcf	3,5	;RP0=0, select bank0
  2854  0639  1303               	bcf	3,6	;RP1=0, select bank0
  2855  063A  2E49               	goto	L45
  2856  063B                     l274:	
  2857                           ;TCC_escravo.c: 360: }
  2858                           ;TCC_escravo.c: 361: }
  2859                           
  2860                           
  2861                           ;TCC_escravo.c: 362: else{
  2862                           ;TCC_escravo.c: 363: if(!RC0 && !RB4){
  2863  063B  1C07               	btfss	7,0	;volatile
  2864  063C  1A06               	btfsc	6,4	;volatile
  2865  063D  2E40               	goto	l277
  2866                           
  2867                           ;TCC_escravo.c: 364: RB5=1;
  2868  063E  1686               	bsf	6,5	;volatile
  2869                           
  2870                           ;TCC_escravo.c: 365: RB6=1;
  2871  063F  1706               	bsf	6,6	;volatile
  2872  0640                     l277:	
  2873                           
  2874                           ;TCC_escravo.c: 366: }
  2875                           ;TCC_escravo.c: 367: if(!RC0 && RB4){
  2876  0640  1C07               	btfss	7,0	;volatile
  2877  0641  1E06               	btfss	6,4	;volatile
  2878  0642  2E45               	goto	l278
  2879                           
  2880                           ;TCC_escravo.c: 368: RB5=0;
  2881  0643  1286               	bcf	6,5	;volatile
  2882                           
  2883                           ;TCC_escravo.c: 369: RB6=1;
  2884  0644  1706               	bsf	6,6	;volatile
  2885  0645                     l278:	
  2886                           
  2887                           ;TCC_escravo.c: 370: }
  2888                           ;TCC_escravo.c: 371: if(RC0 && !RB4){
  2889  0645  1807               	btfsc	7,0	;volatile
  2890  0646  1A06               	btfsc	6,4	;volatile
  2891  0647  2DF5               	goto	l2563
  2892                           
  2893                           ;TCC_escravo.c: 372: RB5=1;
  2894  0648  1686               	bsf	6,5	;volatile
  2895  0649                     L45:	
  2896                           
  2897                           ;TCC_escravo.c: 373: RB6=0;
  2898  0649  1306               	bcf	6,6	;volatile
  2899  064A  2DF5               	goto	l2563
  2900  064B                     __end_of_AX7474:	
  2901                           
  2902                           	psect	text7
  2903  064B                     __ptext7:	
  2904 ;; *************** function _AX7473 *****************
  2905 ;; Defined at:
  2906 ;;		line 271 in file "TCC_escravo.c"
  2907 ;; Parameters:    Size  Location     Type
  2908 ;;		None
  2909 ;; Auto vars:     Size  Location     Type
  2910 ;;		None
  2911 ;; Return value:  Size  Location     Type
  2912 ;;		None               void
  2913 ;; Registers used:
  2914 ;;		wreg
  2915 ;; Tracked objects:
  2916 ;;		On entry : 0/0
  2917 ;;		On exit  : 0/0
  2918 ;;		Unchanged: 0/0
  2919 ;; Data sizes:     COMMON   BANK0   BANK1   BANK2
  2920 ;;      Params:         0       0       0       0
  2921 ;;      Locals:         0       0       0       0
  2922 ;;      Temps:          0       0       0       0
  2923 ;;      Totals:         0       0       0       0
  2924 ;;Total ram usage:        0 bytes
  2925 ;; Hardware stack levels used:    1
  2926 ;; Hardware stack levels required when called:    1
  2927 ;; This function calls:
  2928 ;;		Nothing
  2929 ;; This function is called by:
  2930 ;;		_main
  2931 ;; This function uses a non-reentrant model
  2932 ;;
  2933                           
  2934                           
  2935                           ;psect for function _AX7473
  2936  064B                     _AX7473:	
  2937                           
  2938                           ;TCC_escravo.c: 272: RA0=1;
  2939                           
  2940                           ;incstack = 0
  2941                           ; Regs used in _AX7473: [wreg]
  2942  064B  1283               	bcf	3,5	;RP0=0, select bank0
  2943  064C  1303               	bcf	3,6	;RP1=0, select bank0
  2944  064D  1405               	bsf	5,0	;volatile
  2945                           
  2946                           ;TCC_escravo.c: 273: TRISA=0b11111110;
  2947  064E  30FE               	movlw	254
  2948  064F  1683               	bsf	3,5	;RP0=1, select bank1
  2949  0650  1303               	bcf	3,6	;RP1=0, select bank1
  2950  0651  0085               	movwf	5	;volatile
  2951                           
  2952                           ;TCC_escravo.c: 274: TRISB=0b10011111;
  2953  0652  309F               	movlw	159
  2954  0653  0086               	movwf	6	;volatile
  2955                           
  2956                           ;TCC_escravo.c: 275: TRISC=0b00111111;
  2957  0654  303F               	movlw	63
  2958  0655  0087               	movwf	7	;volatile
  2959  0656                     l2513:	
  2960                           ;TCC_escravo.c: 276: while(1){
  2961                           
  2962                           
  2963                           ;TCC_escravo.c: 277: if(!RC4) up1=0;
  2964  0656  1283               	bcf	3,5	;RP0=0, select bank0
  2965  0657  1E07               	btfss	7,4	;volatile
  2966  0658  1079               	bcf	_up1/(0+8),_up1& (0+7)
  2967                           
  2968                           ;TCC_escravo.c: 278: if(RA5 && RC3){
  2969  0659  1A85               	btfsc	5,5	;volatile
  2970  065A  1D87               	btfss	7,3	;volatile
  2971  065B  2E72               	goto	l247
  2972                           
  2973                           ;TCC_escravo.c: 279: if(RC4 && !up1){
  2974  065C  1A07               	btfsc	7,4	;volatile
  2975  065D  1879               	btfsc	_up1/(0+8),_up1& (0+7)
  2976  065E  2E81               	goto	l249
  2977                           
  2978                           ;TCC_escravo.c: 280: up1=1;
  2979  065F  1479               	bsf	_up1/(0+8),_up1& (0+7)
  2980                           
  2981                           ;TCC_escravo.c: 281: RC6=RC5;
  2982  0660  1E87               	btfss	7,5	;volatile
  2983  0661  2E66               	goto	u5180
  2984  0662  1283               	bcf	3,5	;RP0=0, select bank0
  2985  0663  1303               	bcf	3,6	;RP1=0, select bank0
  2986  0664  1707               	bsf	7,6	;volatile
  2987  0665  2E69               	goto	u5194
  2988  0666                     u5180:	
  2989  0666  1283               	bcf	3,5	;RP0=0, select bank0
  2990  0667  1303               	bcf	3,6	;RP1=0, select bank0
  2991  0668  1307               	bcf	7,6	;volatile
  2992  0669                     u5194:	
  2993                           
  2994                           ;TCC_escravo.c: 282: RC7=!RC6;
  2995  0669  1B07               	btfsc	7,6	;volatile
  2996  066A  2E6F               	goto	u5200
  2997  066B  1283               	bcf	3,5	;RP0=0, select bank0
  2998  066C  1303               	bcf	3,6	;RP1=0, select bank0
  2999  066D  1787               	bsf	7,7	;volatile
  3000  066E  2E81               	goto	l249
  3001  066F                     u5200:	
  3002  066F  1283               	bcf	3,5	;RP0=0, select bank0
  3003  0670  1303               	bcf	3,6	;RP1=0, select bank0
  3004  0671  2E80               	goto	L46
  3005  0672                     l247:	
  3006                           ;TCC_escravo.c: 283: }
  3007                           ;TCC_escravo.c: 284: }
  3008                           
  3009                           
  3010                           ;TCC_escravo.c: 285: else{
  3011                           ;TCC_escravo.c: 286: if(!RA5 && !RC3){
  3012  0672  1E85               	btfss	5,5	;volatile
  3013  0673  1987               	btfsc	7,3	;volatile
  3014  0674  2E77               	goto	l250
  3015                           
  3016                           ;TCC_escravo.c: 287: RC6=1;
  3017  0675  1707               	bsf	7,6	;volatile
  3018                           
  3019                           ;TCC_escravo.c: 288: RC7=1;
  3020  0676  1787               	bsf	7,7	;volatile
  3021  0677                     l250:	
  3022                           
  3023                           ;TCC_escravo.c: 289: }
  3024                           ;TCC_escravo.c: 290: if(!RA5 && RC3){
  3025  0677  1E85               	btfss	5,5	;volatile
  3026  0678  1D87               	btfss	7,3	;volatile
  3027  0679  2E7C               	goto	l251
  3028                           
  3029                           ;TCC_escravo.c: 291: RC6=0;
  3030  067A  1307               	bcf	7,6	;volatile
  3031                           
  3032                           ;TCC_escravo.c: 292: RC7=1;
  3033  067B  1787               	bsf	7,7	;volatile
  3034  067C                     l251:	
  3035                           
  3036                           ;TCC_escravo.c: 293: }
  3037                           ;TCC_escravo.c: 294: if(RA5 && !RC3){
  3038  067C  1A85               	btfsc	5,5	;volatile
  3039  067D  1987               	btfsc	7,3	;volatile
  3040  067E  2E81               	goto	l249
  3041                           
  3042                           ;TCC_escravo.c: 295: RC6=1;
  3043  067F  1707               	bsf	7,6	;volatile
  3044  0680                     L46:	
  3045                           
  3046                           ;TCC_escravo.c: 296: RC7=0;
  3047  0680  1387               	bcf	7,7	;volatile
  3048  0681                     l249:	
  3049                           
  3050                           ;TCC_escravo.c: 297: }
  3051                           ;TCC_escravo.c: 298: }
  3052                           ;TCC_escravo.c: 300: if(!RC2) up2=0;
  3053  0681  1D07               	btfss	7,2	;volatile
  3054  0682  10F9               	bcf	_up2/(0+8),_up2& (0+7)
  3055                           
  3056                           ;TCC_escravo.c: 301: if(RC0 && RB4){
  3057  0683  1807               	btfsc	7,0	;volatile
  3058  0684  1E06               	btfss	6,4	;volatile
  3059  0685  2E9C               	goto	l254
  3060                           
  3061                           ;TCC_escravo.c: 302: if(RC2 && !up2){
  3062  0686  1907               	btfsc	7,2	;volatile
  3063  0687  18F9               	btfsc	_up2/(0+8),_up2& (0+7)
  3064  0688  2E56               	goto	l2513
  3065                           
  3066                           ;TCC_escravo.c: 303: up2=1;
  3067  0689  14F9               	bsf	_up2/(0+8),_up2& (0+7)
  3068                           
  3069                           ;TCC_escravo.c: 304: RB5=RC1;
  3070  068A  1C87               	btfss	7,1	;volatile
  3071  068B  2E90               	goto	u5330
  3072  068C  1283               	bcf	3,5	;RP0=0, select bank0
  3073  068D  1303               	bcf	3,6	;RP1=0, select bank0
  3074  068E  1686               	bsf	6,5	;volatile
  3075  068F  2E93               	goto	u5344
  3076  0690                     u5330:	
  3077  0690  1283               	bcf	3,5	;RP0=0, select bank0
  3078  0691  1303               	bcf	3,6	;RP1=0, select bank0
  3079  0692  1286               	bcf	6,5	;volatile
  3080  0693                     u5344:	
  3081                           
  3082                           ;TCC_escravo.c: 305: RB6=!RB5;
  3083  0693  1A86               	btfsc	6,5	;volatile
  3084  0694  2E99               	goto	u5350
  3085  0695  1283               	bcf	3,5	;RP0=0, select bank0
  3086  0696  1303               	bcf	3,6	;RP1=0, select bank0
  3087  0697  1706               	bsf	6,6	;volatile
  3088  0698  2E56               	goto	l2513
  3089  0699                     u5350:	
  3090  0699  1283               	bcf	3,5	;RP0=0, select bank0
  3091  069A  1303               	bcf	3,6	;RP1=0, select bank0
  3092  069B  2EAA               	goto	L47
  3093  069C                     l254:	
  3094                           ;TCC_escravo.c: 306: }
  3095                           ;TCC_escravo.c: 307: }
  3096                           
  3097                           
  3098                           ;TCC_escravo.c: 308: else{
  3099                           ;TCC_escravo.c: 309: if(!RC0 && !RB4){
  3100  069C  1C07               	btfss	7,0	;volatile
  3101  069D  1A06               	btfsc	6,4	;volatile
  3102  069E  2EA1               	goto	l257
  3103                           
  3104                           ;TCC_escravo.c: 310: RB5=1;
  3105  069F  1686               	bsf	6,5	;volatile
  3106                           
  3107                           ;TCC_escravo.c: 311: RB6=1;
  3108  06A0  1706               	bsf	6,6	;volatile
  3109  06A1                     l257:	
  3110                           
  3111                           ;TCC_escravo.c: 312: }
  3112                           ;TCC_escravo.c: 313: if(!RC0 && RB4){
  3113  06A1  1C07               	btfss	7,0	;volatile
  3114  06A2  1E06               	btfss	6,4	;volatile
  3115  06A3  2EA6               	goto	l258
  3116                           
  3117                           ;TCC_escravo.c: 314: RB5=0;
  3118  06A4  1286               	bcf	6,5	;volatile
  3119                           
  3120                           ;TCC_escravo.c: 315: RB6=1;
  3121  06A5  1706               	bsf	6,6	;volatile
  3122  06A6                     l258:	
  3123                           
  3124                           ;TCC_escravo.c: 316: }
  3125                           ;TCC_escravo.c: 317: if(RC0 && !RB4){
  3126  06A6  1807               	btfsc	7,0	;volatile
  3127  06A7  1A06               	btfsc	6,4	;volatile
  3128  06A8  2E56               	goto	l2513
  3129                           
  3130                           ;TCC_escravo.c: 318: RB5=1;
  3131  06A9  1686               	bsf	6,5	;volatile
  3132  06AA                     L47:	
  3133                           
  3134                           ;TCC_escravo.c: 319: RB6=0;
  3135  06AA  1306               	bcf	6,6	;volatile
  3136  06AB  2E56               	goto	l2513
  3137  06AC                     __end_of_AX7473:	
  3138                           
  3139                           	psect	text8
  3140  06EF                     __ptext8:	
  3141 ;; *************** function _AX7447 *****************
  3142 ;; Defined at:
  3143 ;;		line 252 in file "TCC_escravo.c"
  3144 ;; Parameters:    Size  Location     Type
  3145 ;;		None
  3146 ;; Auto vars:     Size  Location     Type
  3147 ;;  num             1    2[BANK0 ] unsigned char 
  3148 ;; Return value:  Size  Location     Type
  3149 ;;		None               void
  3150 ;; Registers used:
  3151 ;;		wreg, fsr0l, fsr0h, status,2, status,0, pclath, cstack
  3152 ;; Tracked objects:
  3153 ;;		On entry : 0/0
  3154 ;;		On exit  : 0/0
  3155 ;;		Unchanged: 0/0
  3156 ;; Data sizes:     COMMON   BANK0   BANK1   BANK2
  3157 ;;      Params:         0       0       0       0
  3158 ;;      Locals:         0       1       0       0
  3159 ;;      Temps:          0       1       0       0
  3160 ;;      Totals:         0       2       0       0
  3161 ;;Total ram usage:        2 bytes
  3162 ;; Hardware stack levels used:    1
  3163 ;; Hardware stack levels required when called:    2
  3164 ;; This function calls:
  3165 ;;		_tabela
  3166 ;; This function is called by:
  3167 ;;		_main
  3168 ;; This function uses a non-reentrant model
  3169 ;;
  3170                           
  3171                           
  3172                           ;psect for function _AX7447
  3173  06EF                     _AX7447:	
  3174                           
  3175                           ;TCC_escravo.c: 253: RA0=1;
  3176                           
  3177                           ;incstack = 0
  3178                           ; Regs used in _AX7447: [wreg-fsr0h+status,2+status,0+pclath+cstack]
  3179  06EF  1283               	bcf	3,5	;RP0=0, select bank0
  3180  06F0  1303               	bcf	3,6	;RP1=0, select bank0
  3181  06F1  1405               	bsf	5,0	;volatile
  3182                           
  3183                           ;TCC_escravo.c: 254: TRISA=0b11111010;
  3184  06F2  30FA               	movlw	250
  3185  06F3  1683               	bsf	3,5	;RP0=1, select bank1
  3186  06F4  1303               	bcf	3,6	;RP1=0, select bank1
  3187  06F5  0085               	movwf	5	;volatile
  3188                           
  3189                           ;TCC_escravo.c: 255: TRISB=0b10001111;
  3190  06F6  308F               	movlw	143
  3191  06F7  0086               	movwf	6	;volatile
  3192                           
  3193                           ;TCC_escravo.c: 256: TRISC=0b11111000;
  3194  06F8  30F8               	movlw	248
  3195  06F9  0087               	movwf	7	;volatile
  3196                           
  3197                           ;TCC_escravo.c: 257: unsigned char num=0;
  3198  06FA  1283               	bcf	3,5	;RP0=0, select bank0
  3199  06FB  1303               	bcf	3,6	;RP1=0, select bank0
  3200  06FC  01A2               	clrf	AX7447@num
  3201  06FD  2F11               	goto	l2483
  3202  06FE                     l2485:	
  3203  06FE  1A07               	btfsc	7,4	;volatile
  3204  06FF  1D87               	btfss	7,3	;volatile
  3205  0700  2F15               	goto	l235
  3206                           
  3207                           ;TCC_escravo.c: 260: num=((RC6<<3)|(RA5<<2)|(RA4<<1)|(RC7));
  3208  0701  3000               	movlw	0
  3209  0702  1B07               	btfsc	7,6	;volatile
  3210  0703  3008               	movlw	8
  3211  0704  1A85               	btfsc	5,5	;volatile
  3212  0705  3804               	iorlw	4
  3213  0706  1A05               	btfsc	5,4	;volatile
  3214  0707  3802               	iorlw	2
  3215  0708  1B87               	btfsc	7,7	;volatile
  3216  0709  3801               	iorlw	1
  3217  070A  00A1               	movwf	??_AX7447
  3218  070B  0821               	movf	??_AX7447,w
  3219  070C  00A2               	movwf	AX7447@num
  3220                           
  3221                           ;TCC_escravo.c: 261: tabela(num);
  3222  070D  0822               	movf	AX7447@num,w
  3223  070E                     L48:	
  3224  070E  118A  2417  118A   	fcall	_tabela
  3225  0711                     l2483:	
  3226                           ;TCC_escravo.c: 258: while(1){
  3227                           
  3228                           ;TCC_escravo.c: 262: }
  3229                           
  3230                           
  3231                           ;TCC_escravo.c: 259: if(RC5 && RC4 && RC3){
  3232  0711  1283               	bcf	3,5	;RP0=0, select bank0
  3233  0712  1303               	bcf	3,6	;RP1=0, select bank0
  3234  0713  1A87               	btfsc	7,5	;volatile
  3235  0714  2EFE               	goto	l2485
  3236  0715                     l235:	
  3237                           
  3238                           ;TCC_escravo.c: 263: else{
  3239                           ;TCC_escravo.c: 264: if(!RC5 && RC4) tabela(8);
  3240  0715  1E87               	btfss	7,5	;volatile
  3241  0716  1E07               	btfss	7,4	;volatile
  3242  0717  2F1C               	goto	l2497
  3243  0718  3008               	movlw	8
  3244  0719  118A  2417  118A   	fcall	_tabela
  3245  071C                     l2497:	
  3246                           
  3247                           ;TCC_escravo.c: 265: if(!RC3 && RC5 && RC4) tabela(15);
  3248  071C  1283               	bcf	3,5	;RP0=0, select bank0
  3249  071D  1303               	bcf	3,6	;RP1=0, select bank0
  3250  071E  1D87               	btfss	7,3	;volatile
  3251  071F  1E87               	btfss	7,5	;volatile
  3252  0720  2F27               	goto	l2505
  3253  0721  1E07               	btfss	7,4	;volatile
  3254  0722  2F27               	goto	l2505
  3255  0723  300F               	movlw	15
  3256  0724  118A  2417  118A   	fcall	_tabela
  3257  0727                     l2505:	
  3258                           
  3259                           ;TCC_escravo.c: 266: if(!RC4) tabela(15);
  3260  0727  1283               	bcf	3,5	;RP0=0, select bank0
  3261  0728  1303               	bcf	3,6	;RP1=0, select bank0
  3262  0729  1A07               	btfsc	7,4	;volatile
  3263  072A  2F11               	goto	l2483
  3264  072B  300F               	movlw	15
  3265  072C  2F0E               	goto	L48
  3266  072D                     __end_of_AX7447:	
  3267                           
  3268                           	psect	text9
  3269  0417                     __ptext9:	
  3270 ;; *************** function _tabela *****************
  3271 ;; Defined at:
  3272 ;;		line 45 in file "TCC_escravo.c"
  3273 ;; Parameters:    Size  Location     Type
  3274 ;;  dado            1    wreg     unsigned char 
  3275 ;; Auto vars:     Size  Location     Type
  3276 ;;  dado            1    0[BANK0 ] unsigned char 
  3277 ;; Return value:  Size  Location     Type
  3278 ;;		None               void
  3279 ;; Registers used:
  3280 ;;		wreg, fsr0l, fsr0h, status,2, status,0
  3281 ;; Tracked objects:
  3282 ;;		On entry : 0/0
  3283 ;;		On exit  : 0/0
  3284 ;;		Unchanged: 0/0
  3285 ;; Data sizes:     COMMON   BANK0   BANK1   BANK2
  3286 ;;      Params:         0       0       0       0
  3287 ;;      Locals:         0       1       0       0
  3288 ;;      Temps:          0       0       0       0
  3289 ;;      Totals:         0       1       0       0
  3290 ;;Total ram usage:        1 bytes
  3291 ;; Hardware stack levels used:    1
  3292 ;; Hardware stack levels required when called:    1
  3293 ;; This function calls:
  3294 ;;		Nothing
  3295 ;; This function is called by:
  3296 ;;		_AX7447
  3297 ;; This function uses a non-reentrant model
  3298 ;;
  3299                           
  3300                           
  3301                           ;psect for function _tabela
  3302  0417                     _tabela:	
  3303                           
  3304                           ;incstack = 0
  3305                           ; Regs used in _tabela: [wreg-fsr0h+status,2+status,0]
  3306                           ;tabela@dado stored from wreg
  3307  0417  1283               	bcf	3,5	;RP0=0, select bank0
  3308  0418  1303               	bcf	3,6	;RP1=0, select bank0
  3309  0419  00A0               	movwf	tabela@dado
  3310                           
  3311                           ;TCC_escravo.c: 46: switch (dado){
  3312  041A  2C8B               	goto	l2213
  3313  041B                     l2179:	
  3314                           ;TCC_escravo.c: 47: case 0: PORTA=0b11111011;
  3315                           
  3316  041B  30FB               	movlw	251
  3317  041C  0085               	movwf	5	;volatile
  3318                           
  3319                           ;TCC_escravo.c: 48: PORTB=0b10001111;
  3320  041D  308F               	movlw	143
  3321  041E  0086               	movwf	6	;volatile
  3322                           
  3323                           ;TCC_escravo.c: 49: PORTC=0b11111001;
  3324  041F  30F9               	movlw	249
  3325  0420  0087               	movwf	7	;volatile
  3326                           
  3327                           ;TCC_escravo.c: 50: break;
  3328  0421  0008               	return
  3329  0422                     l2181:	
  3330                           ;TCC_escravo.c: 51: case 1: PORTA=0b11111111;
  3331                           
  3332  0422  30FF               	movlw	255
  3333  0423  0085               	movwf	5	;volatile
  3334                           
  3335                           ;TCC_escravo.c: 52: PORTB=0b11101111;
  3336  0424  30EF               	movlw	239
  3337  0425  0086               	movwf	6	;volatile
  3338                           
  3339                           ;TCC_escravo.c: 53: PORTC=0b11111011;
  3340  0426  30FB               	movlw	251
  3341  0427  0087               	movwf	7	;volatile
  3342                           
  3343                           ;TCC_escravo.c: 54: break;
  3344  0428  0008               	return
  3345  0429                     l2183:	
  3346                           ;TCC_escravo.c: 55: case 2: PORTA=0b11111111;
  3347                           
  3348  0429  30FF               	movlw	255
  3349  042A  0085               	movwf	5	;volatile
  3350                           
  3351                           ;TCC_escravo.c: 56: PORTB=0b10011111;
  3352  042B  309F               	movlw	159
  3353  042C  0086               	movwf	6	;volatile
  3354                           
  3355                           ;TCC_escravo.c: 57: PORTC=0b11111000;
  3356  042D  30F8               	movlw	248
  3357  042E  0087               	movwf	7	;volatile
  3358                           
  3359                           ;TCC_escravo.c: 58: break;
  3360  042F  0008               	return
  3361  0430                     l2185:	
  3362                           ;TCC_escravo.c: 59: case 3: PORTA=0b11111111;
  3363                           
  3364  0430  30FF               	movlw	255
  3365  0431  0085               	movwf	5	;volatile
  3366                           
  3367                           ;TCC_escravo.c: 60: PORTB=0b11001111;
  3368  0432  30CF               	movlw	207
  3369  0433  0086               	movwf	6	;volatile
  3370                           
  3371                           ;TCC_escravo.c: 61: PORTC=0b11111000;
  3372  0434  30F8               	movlw	248
  3373  0435  0087               	movwf	7	;volatile
  3374                           
  3375                           ;TCC_escravo.c: 62: break;
  3376  0436  0008               	return
  3377  0437                     l2187:	
  3378                           ;TCC_escravo.c: 63: case 4: PORTA=0b11111011;
  3379                           
  3380  0437  30FB               	movlw	251
  3381  0438  0085               	movwf	5	;volatile
  3382                           
  3383                           ;TCC_escravo.c: 64: PORTB=0b11101111;
  3384  0439  30EF               	movlw	239
  3385  043A  0086               	movwf	6	;volatile
  3386                           
  3387                           ;TCC_escravo.c: 65: PORTC=0b11111010;
  3388  043B  30FA               	movlw	250
  3389  043C  0087               	movwf	7	;volatile
  3390                           
  3391                           ;TCC_escravo.c: 66: break;
  3392  043D  0008               	return
  3393  043E                     l2189:	
  3394                           ;TCC_escravo.c: 67: case 5: PORTA=0b11111011;
  3395                           
  3396  043E  30FB               	movlw	251
  3397  043F  0085               	movwf	5	;volatile
  3398                           
  3399                           ;TCC_escravo.c: 68: PORTB=0b11001111;
  3400  0440  30CF               	movlw	207
  3401  0441  0086               	movwf	6	;volatile
  3402                           
  3403                           ;TCC_escravo.c: 69: PORTC=0b11111100;
  3404  0442  30FC               	movlw	252
  3405  0443  0087               	movwf	7	;volatile
  3406                           
  3407                           ;TCC_escravo.c: 70: break;
  3408  0444  0008               	return
  3409  0445                     l2191:	
  3410                           ;TCC_escravo.c: 71: case 6: PORTA=0b11111011;
  3411                           
  3412  0445  30FB               	movlw	251
  3413  0446  0085               	movwf	5	;volatile
  3414                           
  3415                           ;TCC_escravo.c: 72: PORTB=0b10001111;
  3416  0447  308F               	movlw	143
  3417  0448  0086               	movwf	6	;volatile
  3418                           
  3419                           ;TCC_escravo.c: 73: PORTC=0b11111110;
  3420  0449  30FE               	movlw	254
  3421  044A  0087               	movwf	7	;volatile
  3422                           
  3423                           ;TCC_escravo.c: 74: break;
  3424  044B  0008               	return
  3425  044C                     l2193:	
  3426                           ;TCC_escravo.c: 75: case 7: PORTA=0b11111111;
  3427                           
  3428  044C  30FF               	movlw	255
  3429  044D  0085               	movwf	5	;volatile
  3430                           
  3431                           ;TCC_escravo.c: 76: PORTB=0b11101111;
  3432  044E  30EF               	movlw	239
  3433  044F  0086               	movwf	6	;volatile
  3434                           
  3435                           ;TCC_escravo.c: 77: PORTC=0b11111001;
  3436  0450  30F9               	movlw	249
  3437  0451  0087               	movwf	7	;volatile
  3438                           
  3439                           ;TCC_escravo.c: 78: break;
  3440  0452  0008               	return
  3441  0453                     l2195:	
  3442                           ;TCC_escravo.c: 79: case 8: PORTA=0b11111011;
  3443                           
  3444  0453  30FB               	movlw	251
  3445  0454  0085               	movwf	5	;volatile
  3446                           
  3447                           ;TCC_escravo.c: 80: PORTB=0b10001111;
  3448  0455  308F               	movlw	143
  3449  0456  0086               	movwf	6	;volatile
  3450                           
  3451                           ;TCC_escravo.c: 81: PORTC=0b01111000;
  3452  0457  3078               	movlw	120
  3453  0458  0087               	movwf	7	;volatile
  3454                           
  3455                           ;TCC_escravo.c: 82: break;
  3456  0459  0008               	return
  3457  045A                     l2197:	
  3458                           ;TCC_escravo.c: 83: case 9: PORTA=0b11111011;
  3459                           
  3460  045A  30FB               	movlw	251
  3461  045B  0085               	movwf	5	;volatile
  3462                           
  3463                           ;TCC_escravo.c: 84: PORTB=0b11101111;
  3464  045C  30EF               	movlw	239
  3465  045D  0086               	movwf	6	;volatile
  3466                           
  3467                           ;TCC_escravo.c: 85: PORTC=0b11111000;
  3468  045E  30F8               	movlw	248
  3469  045F  0087               	movwf	7	;volatile
  3470                           
  3471                           ;TCC_escravo.c: 86: break;
  3472  0460  0008               	return
  3473  0461                     l2199:	
  3474                           ;TCC_escravo.c: 87: case 10:PORTA=0b11111111;
  3475                           
  3476  0461  30FF               	movlw	255
  3477  0462  0085               	movwf	5	;volatile
  3478                           
  3479                           ;TCC_escravo.c: 88: PORTB=0b10011111;
  3480  0463  309F               	movlw	159
  3481  0464  0086               	movwf	6	;volatile
  3482                           
  3483                           ;TCC_escravo.c: 89: PORTC=0b11111110;
  3484  0465  30FE               	movlw	254
  3485  0466  0087               	movwf	7	;volatile
  3486                           
  3487                           ;TCC_escravo.c: 90: break;
  3488  0467  0008               	return
  3489  0468                     l2201:	
  3490                           ;TCC_escravo.c: 91: case 11:PORTA=0b11111111;
  3491                           
  3492  0468  30FF               	movlw	255
  3493  0469  0085               	movwf	5	;volatile
  3494                           
  3495                           ;TCC_escravo.c: 92: PORTB=0b11001111;
  3496  046A  30CF               	movlw	207
  3497  046B  0086               	movwf	6	;volatile
  3498                           
  3499                           ;TCC_escravo.c: 93: PORTC=0b11111110;
  3500  046C  30FE               	movlw	254
  3501  046D  0087               	movwf	7	;volatile
  3502                           
  3503                           ;TCC_escravo.c: 94: break;
  3504  046E  0008               	return
  3505  046F                     l2203:	
  3506                           ;TCC_escravo.c: 95: case 12:PORTA=0b11111011;
  3507                           
  3508  046F  30FB               	movlw	251
  3509  0470  0085               	movwf	5	;volatile
  3510                           
  3511                           ;TCC_escravo.c: 96: PORTB=0b11111111;
  3512  0471  30FF               	movlw	255
  3513  0472  0086               	movwf	6	;volatile
  3514                           
  3515                           ;TCC_escravo.c: 97: PORTC=0b11111010;
  3516  0473  30FA               	movlw	250
  3517  0474  0087               	movwf	7	;volatile
  3518                           
  3519                           ;TCC_escravo.c: 98: break;
  3520  0475  0008               	return
  3521  0476                     l2205:	
  3522                           ;TCC_escravo.c: 99: case 13:PORTA=0b11111011;
  3523                           
  3524  0476  30FB               	movlw	251
  3525  0477  0085               	movwf	5	;volatile
  3526                           
  3527                           ;TCC_escravo.c: 100: PORTB=0b11011111;
  3528  0478  30DF               	movlw	223
  3529  0479  0086               	movwf	6	;volatile
  3530                           
  3531                           ;TCC_escravo.c: 101: PORTC=0b11111100;
  3532  047A  30FC               	movlw	252
  3533  047B  0087               	movwf	7	;volatile
  3534                           
  3535                           ;TCC_escravo.c: 102: break;
  3536  047C  0008               	return
  3537  047D                     l2207:	
  3538                           ;TCC_escravo.c: 103: case 14:PORTA=0b11111011;
  3539                           
  3540  047D  30FB               	movlw	251
  3541  047E  0085               	movwf	5	;volatile
  3542                           
  3543                           ;TCC_escravo.c: 104: PORTB=0b10011111;
  3544  047F  309F               	movlw	159
  3545  0480  0086               	movwf	6	;volatile
  3546                           
  3547                           ;TCC_escravo.c: 105: PORTC=0b11111110;
  3548  0481  30FE               	movlw	254
  3549  0482  0087               	movwf	7	;volatile
  3550                           
  3551                           ;TCC_escravo.c: 106: break;
  3552  0483  0008               	return
  3553  0484                     l2209:	
  3554                           ;TCC_escravo.c: 107: case 15:PORTA=0b11111111;
  3555                           
  3556  0484  30FF               	movlw	255
  3557  0485  0085               	movwf	5	;volatile
  3558                           
  3559                           ;TCC_escravo.c: 108: PORTB=0b11111111;
  3560  0486  30FF               	movlw	255
  3561  0487  0086               	movwf	6	;volatile
  3562                           
  3563                           ;TCC_escravo.c: 109: PORTC=0b11111111;
  3564  0488  30FF               	movlw	255
  3565  0489  0087               	movwf	7	;volatile
  3566                           
  3567                           ;TCC_escravo.c: 112: }
  3568                           
  3569                           ;TCC_escravo.c: 111: default: break;
  3570                           
  3571                           ;TCC_escravo.c: 110: break;
  3572  048A  0008               	return
  3573  048B                     l2213:	
  3574  048B  0820               	movf	tabela@dado,w
  3575                           
  3576                           ; Switch size 1, requested type "space"
  3577                           ; Number of cases is 16, Range of values is 0 to 15
  3578                           ; switch strategies available:
  3579                           ; Name         Instructions Cycles
  3580                           ; direct_byte           39     7 (fixed)
  3581                           ; simple_byte           49    25 (average)
  3582                           ; jumptable            260     6 (fixed)
  3583                           ; rangetable            20     6 (fixed)
  3584                           ; spacedrange           38     9 (fixed)
  3585                           ; locatedrange          16     3 (fixed)
  3586                           ;	Chosen strategy is direct_byte
  3587  048C  0084               	movwf	4
  3588  048D  3010               	movlw	16
  3589  048E  0204               	subwf	4,w
  3590  048F  1803               	skipnc
  3591  0490  0008               	return
  3592  0491  3007               	movlw	high S3159
  3593  0492  008A               	movwf	10
  3594  0493  1003               	clrc
  3595  0494  0D04               	rlf	4,w
  3596  0495  3ED8               	addlw	low S3159
  3597  0496  0082               	movwf	2
  3598  0497  0008               	return
  3599  0498                     __end_of_tabela:	
  3600                           
  3601                           	psect	swtext5
  3602  07D8                     __pswtext5:	
  3603  07D8                     S3159:	
  3604  07D8  118A  2C1B         	ljmp	l2179
  3605  07DA  118A  2C22         	ljmp	l2181
  3606  07DC  118A  2C29         	ljmp	l2183
  3607  07DE  118A  2C30         	ljmp	l2185
  3608  07E0  118A  2C37         	ljmp	l2187
  3609  07E2  118A  2C3E         	ljmp	l2189
  3610  07E4  118A  2C45         	ljmp	l2191
  3611  07E6  118A  2C4C         	ljmp	l2193
  3612  07E8  118A  2C53         	ljmp	l2195
  3613  07EA  118A  2C5A         	ljmp	l2197
  3614  07EC  118A  2C61         	ljmp	l2199
  3615  07EE  118A  2C68         	ljmp	l2201
  3616  07F0  118A  2C6F         	ljmp	l2203
  3617  07F2  118A  2C76         	ljmp	l2205
  3618  07F4  118A  2C7D         	ljmp	l2207
  3619  07F6  118A  2C84         	ljmp	l2209
  3620                           
  3621                           	psect	text10
  3622  072D                     __ptext10:	
  3623 ;; *************** function _AX7432 *****************
  3624 ;; Defined at:
  3625 ;;		line 239 in file "TCC_escravo.c"
  3626 ;; Parameters:    Size  Location     Type
  3627 ;;		None
  3628 ;; Auto vars:     Size  Location     Type
  3629 ;;		None
  3630 ;; Return value:  Size  Location     Type
  3631 ;;		None               void
  3632 ;; Registers used:
  3633 ;;		wreg, status,2
  3634 ;; Tracked objects:
  3635 ;;		On entry : 0/0
  3636 ;;		On exit  : 0/0
  3637 ;;		Unchanged: 0/0
  3638 ;; Data sizes:     COMMON   BANK0   BANK1   BANK2
  3639 ;;      Params:         0       0       0       0
  3640 ;;      Locals:         0       4       0       0
  3641 ;;      Temps:          0       0       0       0
  3642 ;;      Totals:         0       4       0       0
  3643 ;;Total ram usage:        4 bytes
  3644 ;; Hardware stack levels used:    1
  3645 ;; Hardware stack levels required when called:    1
  3646 ;; This function calls:
  3647 ;;		Nothing
  3648 ;; This function is called by:
  3649 ;;		_main
  3650 ;; This function uses a non-reentrant model
  3651 ;;
  3652                           
  3653                           
  3654                           ;psect for function _AX7432
  3655  072D                     _AX7432:	
  3656                           
  3657                           ;TCC_escravo.c: 240: RA0=0;
  3658                           
  3659                           ;incstack = 0
  3660                           ; Regs used in _AX7432: [wreg+status,2]
  3661  072D  1283               	bcf	3,5	;RP0=0, select bank0
  3662  072E  1303               	bcf	3,6	;RP1=0, select bank0
  3663  072F  1005               	bcf	5,0	;volatile
  3664                           
  3665                           ;TCC_escravo.c: 241: TRISA=0b11111110;
  3666  0730  30FE               	movlw	254
  3667  0731  1683               	bsf	3,5	;RP0=1, select bank1
  3668  0732  1303               	bcf	3,6	;RP1=0, select bank1
  3669  0733  0085               	movwf	5	;volatile
  3670                           
  3671                           ;TCC_escravo.c: 242: TRISB=0b10111111;
  3672  0734  30BF               	movlw	191
  3673  0735  0086               	movwf	6	;volatile
  3674                           
  3675                           ;TCC_escravo.c: 243: TRISC=0b01101011;
  3676  0736  306B               	movlw	107
  3677  0737  0087               	movwf	7	;volatile
  3678  0738                     l2437:	
  3679                           ;TCC_escravo.c: 244: while(1){
  3680                           
  3681                           
  3682                           ;TCC_escravo.c: 245: RC4=(RA5||RC5);
  3683  0738  1283               	bcf	3,5	;RP0=0, select bank0
  3684  0739  01A0               	clrf	_AX7432$103
  3685  073A  0AA0               	incf	_AX7432$103,f
  3686  073B  1E85               	btfss	5,5	;volatile
  3687  073C  1A87               	btfsc	7,5	;volatile
  3688  073D  2F3F               	goto	l2445
  3689  073E  01A0               	clrf	_AX7432$103
  3690  073F                     l2445:	
  3691  073F  0820               	movf	_AX7432$103,w
  3692  0740  1D03               	skipz
  3693  0741  1607               	bsf	7,4	;volatile
  3694  0742  1903               	skipnz
  3695  0743  1207               	bcf	7,4	;volatile
  3696                           
  3697                           ;TCC_escravo.c: 246: RC7=(RC3||RC6);
  3698  0744  01A1               	clrf	_AX7432$104
  3699  0745  0AA1               	incf	_AX7432$104,f
  3700  0746  1D87               	btfss	7,3	;volatile
  3701  0747  1B07               	btfsc	7,6	;volatile
  3702  0748  2F4A               	goto	l2455
  3703  0749  01A1               	clrf	_AX7432$104
  3704  074A                     l2455:	
  3705  074A  0821               	movf	_AX7432$104,w
  3706  074B  1D03               	skipz
  3707  074C  1787               	bsf	7,7	;volatile
  3708  074D  1903               	skipnz
  3709  074E  1387               	bcf	7,7	;volatile
  3710                           
  3711                           ;TCC_escravo.c: 247: RB6=(RB5||RB4);
  3712  074F  01A2               	clrf	_AX7432$105
  3713  0750  0AA2               	incf	_AX7432$105,f
  3714  0751  1E86               	btfss	6,5	;volatile
  3715  0752  1A06               	btfsc	6,4	;volatile
  3716  0753  2F55               	goto	l2465
  3717  0754  01A2               	clrf	_AX7432$105
  3718  0755                     l2465:	
  3719  0755  0822               	movf	_AX7432$105,w
  3720  0756  1D03               	skipz
  3721  0757  1706               	bsf	6,6	;volatile
  3722  0758  1903               	skipnz
  3723  0759  1306               	bcf	6,6	;volatile
  3724                           
  3725                           ;TCC_escravo.c: 248: RC2=(RC1||RC0);
  3726  075A  01A3               	clrf	_AX7432$106
  3727  075B  0AA3               	incf	_AX7432$106,f
  3728  075C  1C87               	btfss	7,1	;volatile
  3729  075D  1807               	btfsc	7,0	;volatile
  3730  075E  2F60               	goto	l2475
  3731  075F  01A3               	clrf	_AX7432$106
  3732  0760                     l2475:	
  3733  0760  0823               	movf	_AX7432$106,w
  3734  0761  1D03               	skipz
  3735  0762  1507               	bsf	7,2	;volatile
  3736  0763  1903               	skipnz
  3737  0764  1107               	bcf	7,2	;volatile
  3738  0765  2F38               	goto	l2437
  3739  0766                     __end_of_AX7432:	
  3740                           
  3741                           	psect	text11
  3742  0766                     __ptext11:	
  3743 ;; *************** function _AX7408 *****************
  3744 ;; Defined at:
  3745 ;;		line 226 in file "TCC_escravo.c"
  3746 ;; Parameters:    Size  Location     Type
  3747 ;;		None
  3748 ;; Auto vars:     Size  Location     Type
  3749 ;;		None
  3750 ;; Return value:  Size  Location     Type
  3751 ;;		None               void
  3752 ;; Registers used:
  3753 ;;		wreg, status,2
  3754 ;; Tracked objects:
  3755 ;;		On entry : 0/0
  3756 ;;		On exit  : 0/0
  3757 ;;		Unchanged: 0/0
  3758 ;; Data sizes:     COMMON   BANK0   BANK1   BANK2
  3759 ;;      Params:         0       0       0       0
  3760 ;;      Locals:         0       4       0       0
  3761 ;;      Temps:          0       0       0       0
  3762 ;;      Totals:         0       4       0       0
  3763 ;;Total ram usage:        4 bytes
  3764 ;; Hardware stack levels used:    1
  3765 ;; Hardware stack levels required when called:    1
  3766 ;; This function calls:
  3767 ;;		Nothing
  3768 ;; This function is called by:
  3769 ;;		_main
  3770 ;; This function uses a non-reentrant model
  3771 ;;
  3772                           
  3773                           
  3774                           ;psect for function _AX7408
  3775  0766                     _AX7408:	
  3776                           
  3777                           ;TCC_escravo.c: 227: RA0=0;
  3778                           
  3779                           ;incstack = 0
  3780                           ; Regs used in _AX7408: [wreg+status,2]
  3781  0766  1283               	bcf	3,5	;RP0=0, select bank0
  3782  0767  1303               	bcf	3,6	;RP1=0, select bank0
  3783  0768  1005               	bcf	5,0	;volatile
  3784                           
  3785                           ;TCC_escravo.c: 228: TRISA=0b11111110;
  3786  0769  30FE               	movlw	254
  3787  076A  1683               	bsf	3,5	;RP0=1, select bank1
  3788  076B  1303               	bcf	3,6	;RP1=0, select bank1
  3789  076C  0085               	movwf	5	;volatile
  3790                           
  3791                           ;TCC_escravo.c: 229: TRISB=0b10111111;
  3792  076D  30BF               	movlw	191
  3793  076E  0086               	movwf	6	;volatile
  3794                           
  3795                           ;TCC_escravo.c: 230: TRISC=0b01101011;
  3796  076F  306B               	movlw	107
  3797  0770  0087               	movwf	7	;volatile
  3798  0771                     l2393:	
  3799                           ;TCC_escravo.c: 231: while(1){
  3800                           
  3801                           
  3802                           ;TCC_escravo.c: 232: RC4=(RA5&&RC5);
  3803  0771  1283               	bcf	3,5	;RP0=0, select bank0
  3804  0772  01A0               	clrf	_AX7408$98
  3805  0773  1A85               	btfsc	5,5	;volatile
  3806  0774  1E87               	btfss	7,5	;volatile
  3807  0775  2F78               	goto	l2401
  3808  0776  01A0               	clrf	_AX7408$98
  3809  0777  0AA0               	incf	_AX7408$98,f
  3810  0778                     l2401:	
  3811  0778  0820               	movf	_AX7408$98,w
  3812  0779  1D03               	skipz
  3813  077A  1607               	bsf	7,4	;volatile
  3814  077B  1903               	skipnz
  3815  077C  1207               	bcf	7,4	;volatile
  3816                           
  3817                           ;TCC_escravo.c: 233: RC7=(RC3&&RC6);
  3818  077D  01A1               	clrf	_AX7408$99
  3819  077E  1987               	btfsc	7,3	;volatile
  3820  077F  1F07               	btfss	7,6	;volatile
  3821  0780  2F83               	goto	l2411
  3822  0781  01A1               	clrf	_AX7408$99
  3823  0782  0AA1               	incf	_AX7408$99,f
  3824  0783                     l2411:	
  3825  0783  0821               	movf	_AX7408$99,w
  3826  0784  1D03               	skipz
  3827  0785  1787               	bsf	7,7	;volatile
  3828  0786  1903               	skipnz
  3829  0787  1387               	bcf	7,7	;volatile
  3830                           
  3831                           ;TCC_escravo.c: 234: RB6=(RB5&&RB4);
  3832  0788  01A2               	clrf	_AX7408$100
  3833  0789  1A86               	btfsc	6,5	;volatile
  3834  078A  1E06               	btfss	6,4	;volatile
  3835  078B  2F8E               	goto	l2421
  3836  078C  01A2               	clrf	_AX7408$100
  3837  078D  0AA2               	incf	_AX7408$100,f
  3838  078E                     l2421:	
  3839  078E  0822               	movf	_AX7408$100,w
  3840  078F  1D03               	skipz
  3841  0790  1706               	bsf	6,6	;volatile
  3842  0791  1903               	skipnz
  3843  0792  1306               	bcf	6,6	;volatile
  3844                           
  3845                           ;TCC_escravo.c: 235: RC2=(RC1&&RC0);
  3846  0793  01A3               	clrf	_AX7408$101
  3847  0794  1887               	btfsc	7,1	;volatile
  3848  0795  1C07               	btfss	7,0	;volatile
  3849  0796  2F99               	goto	l2431
  3850  0797  01A3               	clrf	_AX7408$101
  3851  0798  0AA3               	incf	_AX7408$101,f
  3852  0799                     l2431:	
  3853  0799  0823               	movf	_AX7408$101,w
  3854  079A  1D03               	skipz
  3855  079B  1507               	bsf	7,2	;volatile
  3856  079C  1903               	skipnz
  3857  079D  1107               	bcf	7,2	;volatile
  3858  079E  2F71               	goto	l2393
  3859  079F                     __end_of_AX7408:	
  3860                           
  3861                           	psect	text12
  3862  06AC                     __ptext12:	
  3863 ;; *************** function _AX7404 *****************
  3864 ;; Defined at:
  3865 ;;		line 211 in file "TCC_escravo.c"
  3866 ;; Parameters:    Size  Location     Type
  3867 ;;		None
  3868 ;; Auto vars:     Size  Location     Type
  3869 ;;		None
  3870 ;; Return value:  Size  Location     Type
  3871 ;;		None               void
  3872 ;; Registers used:
  3873 ;;		wreg
  3874 ;; Tracked objects:
  3875 ;;		On entry : 0/0
  3876 ;;		On exit  : 0/0
  3877 ;;		Unchanged: 0/0
  3878 ;; Data sizes:     COMMON   BANK0   BANK1   BANK2
  3879 ;;      Params:         0       0       0       0
  3880 ;;      Locals:         0       0       0       0
  3881 ;;      Temps:          0       0       0       0
  3882 ;;      Totals:         0       0       0       0
  3883 ;;Total ram usage:        0 bytes
  3884 ;; Hardware stack levels used:    1
  3885 ;; Hardware stack levels required when called:    1
  3886 ;; This function calls:
  3887 ;;		Nothing
  3888 ;; This function is called by:
  3889 ;;		_main
  3890 ;; This function uses a non-reentrant model
  3891 ;;
  3892                           
  3893                           
  3894                           ;psect for function _AX7404
  3895  06AC                     _AX7404:	
  3896                           
  3897                           ;TCC_escravo.c: 212: RA0=0;
  3898                           
  3899                           ;incstack = 0
  3900                           ; Regs used in _AX7404: [wreg]
  3901  06AC  1283               	bcf	3,5	;RP0=0, select bank0
  3902  06AD  1303               	bcf	3,6	;RP1=0, select bank0
  3903  06AE  1005               	bcf	5,0	;volatile
  3904                           
  3905                           ;TCC_escravo.c: 213: TRISA=0b11111110;
  3906  06AF  30FE               	movlw	254
  3907  06B0  1683               	bsf	3,5	;RP0=1, select bank1
  3908  06B1  1303               	bcf	3,6	;RP1=0, select bank1
  3909  06B2  0085               	movwf	5	;volatile
  3910                           
  3911                           ;TCC_escravo.c: 214: TRISB=0b10101111;
  3912  06B3  30AF               	movlw	175
  3913  06B4  0086               	movwf	6	;volatile
  3914                           
  3915                           ;TCC_escravo.c: 215: TRISC=0b01010101;
  3916  06B5  3055               	movlw	85
  3917  06B6  0087               	movwf	7	;volatile
  3918  06B7                     l2377:	
  3919                           ;TCC_escravo.c: 216: while(1){
  3920                           
  3921                           
  3922                           ;TCC_escravo.c: 217: RC5=!RA5;
  3923  06B7  1283               	bcf	3,5	;RP0=0, select bank0
  3924  06B8  1A85               	btfsc	5,5	;volatile
  3925  06B9  2EBE               	goto	u4760
  3926  06BA  1283               	bcf	3,5	;RP0=0, select bank0
  3927  06BB  1303               	bcf	3,6	;RP1=0, select bank0
  3928  06BC  1687               	bsf	7,5	;volatile
  3929  06BD  2EC1               	goto	l2379
  3930  06BE                     u4760:	
  3931  06BE  1283               	bcf	3,5	;RP0=0, select bank0
  3932  06BF  1303               	bcf	3,6	;RP1=0, select bank0
  3933  06C0  1287               	bcf	7,5	;volatile
  3934  06C1                     l2379:	
  3935                           
  3936                           ;TCC_escravo.c: 218: RC3=!RC4;
  3937  06C1  1A07               	btfsc	7,4	;volatile
  3938  06C2  2EC7               	goto	u4780
  3939  06C3  1283               	bcf	3,5	;RP0=0, select bank0
  3940  06C4  1303               	bcf	3,6	;RP1=0, select bank0
  3941  06C5  1587               	bsf	7,3	;volatile
  3942  06C6  2ECA               	goto	l2381
  3943  06C7                     u4780:	
  3944  06C7  1283               	bcf	3,5	;RP0=0, select bank0
  3945  06C8  1303               	bcf	3,6	;RP1=0, select bank0
  3946  06C9  1187               	bcf	7,3	;volatile
  3947  06CA                     l2381:	
  3948                           
  3949                           ;TCC_escravo.c: 219: RC7=!RC6;
  3950  06CA  1B07               	btfsc	7,6	;volatile
  3951  06CB  2ED0               	goto	u4800
  3952  06CC  1283               	bcf	3,5	;RP0=0, select bank0
  3953  06CD  1303               	bcf	3,6	;RP1=0, select bank0
  3954  06CE  1787               	bsf	7,7	;volatile
  3955  06CF  2ED3               	goto	l2383
  3956  06D0                     u4800:	
  3957  06D0  1283               	bcf	3,5	;RP0=0, select bank0
  3958  06D1  1303               	bcf	3,6	;RP1=0, select bank0
  3959  06D2  1387               	bcf	7,7	;volatile
  3960  06D3                     l2383:	
  3961                           
  3962                           ;TCC_escravo.c: 220: RB6=!RB5;
  3963  06D3  1A86               	btfsc	6,5	;volatile
  3964  06D4  2ED9               	goto	u4820
  3965  06D5  1283               	bcf	3,5	;RP0=0, select bank0
  3966  06D6  1303               	bcf	3,6	;RP1=0, select bank0
  3967  06D7  1706               	bsf	6,6	;volatile
  3968  06D8  2EDC               	goto	l2385
  3969  06D9                     u4820:	
  3970  06D9  1283               	bcf	3,5	;RP0=0, select bank0
  3971  06DA  1303               	bcf	3,6	;RP1=0, select bank0
  3972  06DB  1306               	bcf	6,6	;volatile
  3973  06DC                     l2385:	
  3974                           
  3975                           ;TCC_escravo.c: 221: RB4=!RC2;
  3976  06DC  1907               	btfsc	7,2	;volatile
  3977  06DD  2EE2               	goto	u4840
  3978  06DE  1283               	bcf	3,5	;RP0=0, select bank0
  3979  06DF  1303               	bcf	3,6	;RP1=0, select bank0
  3980  06E0  1606               	bsf	6,4	;volatile
  3981  06E1  2EE5               	goto	l2387
  3982  06E2                     u4840:	
  3983  06E2  1283               	bcf	3,5	;RP0=0, select bank0
  3984  06E3  1303               	bcf	3,6	;RP1=0, select bank0
  3985  06E4  1206               	bcf	6,4	;volatile
  3986  06E5                     l2387:	
  3987                           
  3988                           ;TCC_escravo.c: 222: RC1=!RC0;
  3989  06E5  1807               	btfsc	7,0	;volatile
  3990  06E6  2EEB               	goto	u4860
  3991  06E7  1283               	bcf	3,5	;RP0=0, select bank0
  3992  06E8  1303               	bcf	3,6	;RP1=0, select bank0
  3993  06E9  1487               	bsf	7,1	;volatile
  3994  06EA  2EB7               	goto	l2377
  3995  06EB                     u4860:	
  3996  06EB  1283               	bcf	3,5	;RP0=0, select bank0
  3997  06EC  1303               	bcf	3,6	;RP1=0, select bank0
  3998  06ED  1087               	bcf	7,1	;volatile
  3999  06EE  2EB7               	goto	l2377
  4000  06EF                     __end_of_AX7404:	
  4001                           
  4002                           	psect	text13
  4003  079F                     __ptext13:	
  4004 ;; *************** function _AX7402 *****************
  4005 ;; Defined at:
  4006 ;;		line 198 in file "TCC_escravo.c"
  4007 ;; Parameters:    Size  Location     Type
  4008 ;;		None
  4009 ;; Auto vars:     Size  Location     Type
  4010 ;;		None
  4011 ;; Return value:  Size  Location     Type
  4012 ;;		None               void
  4013 ;; Registers used:
  4014 ;;		wreg, status,2
  4015 ;; Tracked objects:
  4016 ;;		On entry : 0/0
  4017 ;;		On exit  : 0/0
  4018 ;;		Unchanged: 0/0
  4019 ;; Data sizes:     COMMON   BANK0   BANK1   BANK2
  4020 ;;      Params:         0       0       0       0
  4021 ;;      Locals:         0       4       0       0
  4022 ;;      Temps:          0       0       0       0
  4023 ;;      Totals:         0       4       0       0
  4024 ;;Total ram usage:        4 bytes
  4025 ;; Hardware stack levels used:    1
  4026 ;; Hardware stack levels required when called:    1
  4027 ;; This function calls:
  4028 ;;		Nothing
  4029 ;; This function is called by:
  4030 ;;		_main
  4031 ;; This function uses a non-reentrant model
  4032 ;;
  4033                           
  4034                           
  4035                           ;psect for function _AX7402
  4036  079F                     _AX7402:	
  4037                           
  4038                           ;TCC_escravo.c: 199: RA0=0;
  4039                           
  4040                           ;incstack = 0
  4041                           ; Regs used in _AX7402: [wreg+status,2]
  4042  079F  1283               	bcf	3,5	;RP0=0, select bank0
  4043  07A0  1303               	bcf	3,6	;RP1=0, select bank0
  4044  07A1  1005               	bcf	5,0	;volatile
  4045                           
  4046                           ;TCC_escravo.c: 200: TRISA=0b11011110;
  4047  07A2  30DE               	movlw	222
  4048  07A3  1683               	bsf	3,5	;RP0=1, select bank1
  4049  07A4  1303               	bcf	3,6	;RP1=0, select bank1
  4050  07A5  0085               	movwf	5	;volatile
  4051                           
  4052                           ;TCC_escravo.c: 201: TRISB=0b11101111;
  4053  07A6  30EF               	movlw	239
  4054  07A7  0086               	movwf	6	;volatile
  4055                           
  4056                           ;TCC_escravo.c: 202: TRISC=0b11110110;
  4057  07A8  30F6               	movlw	246
  4058  07A9  0087               	movwf	7	;volatile
  4059  07AA                     l2333:	
  4060                           ;TCC_escravo.c: 203: while(1){
  4061                           
  4062                           
  4063                           ;TCC_escravo.c: 204: RA5=!(RC5||RC4);
  4064  07AA  1283               	bcf	3,5	;RP0=0, select bank0
  4065  07AB  01A0               	clrf	_AX7402$92
  4066  07AC  1E87               	btfss	7,5	;volatile
  4067  07AD  1A07               	btfsc	7,4	;volatile
  4068  07AE  2FB1               	goto	l2341
  4069  07AF  01A0               	clrf	_AX7402$92
  4070  07B0  0AA0               	incf	_AX7402$92,f
  4071  07B1                     l2341:	
  4072  07B1  0820               	movf	_AX7402$92,w
  4073  07B2  1D03               	skipz
  4074  07B3  1685               	bsf	5,5	;volatile
  4075  07B4  1903               	skipnz
  4076  07B5  1285               	bcf	5,5	;volatile
  4077                           
  4078                           ;TCC_escravo.c: 205: RC3=!(RC7||RC6);
  4079  07B6  01A1               	clrf	_AX7402$93
  4080  07B7  1F87               	btfss	7,7	;volatile
  4081  07B8  1B07               	btfsc	7,6	;volatile
  4082  07B9  2FBC               	goto	l2351
  4083  07BA  01A1               	clrf	_AX7402$93
  4084  07BB  0AA1               	incf	_AX7402$93,f
  4085  07BC                     l2351:	
  4086  07BC  0821               	movf	_AX7402$93,w
  4087  07BD  1D03               	skipz
  4088  07BE  1587               	bsf	7,3	;volatile
  4089  07BF  1903               	skipnz
  4090  07C0  1187               	bcf	7,3	;volatile
  4091                           
  4092                           ;TCC_escravo.c: 206: RB4=!(RB5||RB6);
  4093  07C1  01A2               	clrf	_AX7402$94
  4094  07C2  1E86               	btfss	6,5	;volatile
  4095  07C3  1B06               	btfsc	6,6	;volatile
  4096  07C4  2FC7               	goto	l2361
  4097  07C5  01A2               	clrf	_AX7402$94
  4098  07C6  0AA2               	incf	_AX7402$94,f
  4099  07C7                     l2361:	
  4100  07C7  0822               	movf	_AX7402$94,w
  4101  07C8  1D03               	skipz
  4102  07C9  1606               	bsf	6,4	;volatile
  4103  07CA  1903               	skipnz
  4104  07CB  1206               	bcf	6,4	;volatile
  4105                           
  4106                           ;TCC_escravo.c: 207: RC0=!(RC1||RC2);
  4107  07CC  01A3               	clrf	_AX7402$95
  4108  07CD  1C87               	btfss	7,1	;volatile
  4109  07CE  1907               	btfsc	7,2	;volatile
  4110  07CF  2FD2               	goto	l2371
  4111  07D0  01A3               	clrf	_AX7402$95
  4112  07D1  0AA3               	incf	_AX7402$95,f
  4113  07D2                     l2371:	
  4114  07D2  0823               	movf	_AX7402$95,w
  4115  07D3  1D03               	skipz
  4116  07D4  1407               	bsf	7,0	;volatile
  4117  07D5  1903               	skipnz
  4118  07D6  1007               	bcf	7,0	;volatile
  4119  07D7  2FAA               	goto	l2333
  4120  07D8                     __end_of_AX7402:	
  4121                           
  4122                           	psect	text14
  4123  0FC7                     __ptext14:	
  4124 ;; *************** function _AX7400 *****************
  4125 ;; Defined at:
  4126 ;;		line 185 in file "TCC_escravo.c"
  4127 ;; Parameters:    Size  Location     Type
  4128 ;;		None
  4129 ;; Auto vars:     Size  Location     Type
  4130 ;;		None
  4131 ;; Return value:  Size  Location     Type
  4132 ;;		None               void
  4133 ;; Registers used:
  4134 ;;		wreg, status,2
  4135 ;; Tracked objects:
  4136 ;;		On entry : 0/0
  4137 ;;		On exit  : 0/0
  4138 ;;		Unchanged: 0/0
  4139 ;; Data sizes:     COMMON   BANK0   BANK1   BANK2
  4140 ;;      Params:         0       0       0       0
  4141 ;;      Locals:         0       4       0       0
  4142 ;;      Temps:          0       0       0       0
  4143 ;;      Totals:         0       4       0       0
  4144 ;;Total ram usage:        4 bytes
  4145 ;; Hardware stack levels used:    1
  4146 ;; Hardware stack levels required when called:    1
  4147 ;; This function calls:
  4148 ;;		Nothing
  4149 ;; This function is called by:
  4150 ;;		_main
  4151 ;; This function uses a non-reentrant model
  4152 ;;
  4153                           
  4154                           
  4155                           ;psect for function _AX7400
  4156  0FC7                     _AX7400:	
  4157                           
  4158                           ;TCC_escravo.c: 186: RA0=0;
  4159                           
  4160                           ;incstack = 0
  4161                           ; Regs used in _AX7400: [wreg+status,2]
  4162  0FC7  1283               	bcf	3,5	;RP0=0, select bank0
  4163  0FC8  1303               	bcf	3,6	;RP1=0, select bank0
  4164  0FC9  1005               	bcf	5,0	;volatile
  4165                           
  4166                           ;TCC_escravo.c: 187: TRISA=0b11111110;
  4167  0FCA  30FE               	movlw	254
  4168  0FCB  1683               	bsf	3,5	;RP0=1, select bank1
  4169  0FCC  1303               	bcf	3,6	;RP1=0, select bank1
  4170  0FCD  0085               	movwf	5	;volatile
  4171                           
  4172                           ;TCC_escravo.c: 188: TRISB=0b10111111;
  4173  0FCE  30BF               	movlw	191
  4174  0FCF  0086               	movwf	6	;volatile
  4175                           
  4176                           ;TCC_escravo.c: 189: TRISC=0b01101011;
  4177  0FD0  306B               	movlw	107
  4178  0FD1  0087               	movwf	7	;volatile
  4179  0FD2                     l2289:	
  4180                           ;TCC_escravo.c: 190: while(1){
  4181                           
  4182                           
  4183                           ;TCC_escravo.c: 191: RC4=!(RA5&&RC5);
  4184  0FD2  1283               	bcf	3,5	;RP0=0, select bank0
  4185  0FD3  01A0               	clrf	_AX7400$87
  4186  0FD4  0AA0               	incf	_AX7400$87,f
  4187  0FD5  1A85               	btfsc	5,5	;volatile
  4188  0FD6  1E87               	btfss	7,5	;volatile
  4189  0FD7  2FD9               	goto	l2297
  4190  0FD8  01A0               	clrf	_AX7400$87
  4191  0FD9                     l2297:	
  4192  0FD9  0820               	movf	_AX7400$87,w
  4193  0FDA  1D03               	skipz
  4194  0FDB  1607               	bsf	7,4	;volatile
  4195  0FDC  1903               	skipnz
  4196  0FDD  1207               	bcf	7,4	;volatile
  4197                           
  4198                           ;TCC_escravo.c: 192: RC7=!(RC3&&RC6);
  4199  0FDE  01A1               	clrf	_AX7400$88
  4200  0FDF  0AA1               	incf	_AX7400$88,f
  4201  0FE0  1987               	btfsc	7,3	;volatile
  4202  0FE1  1F07               	btfss	7,6	;volatile
  4203  0FE2  2FE4               	goto	l2307
  4204  0FE3  01A1               	clrf	_AX7400$88
  4205  0FE4                     l2307:	
  4206  0FE4  0821               	movf	_AX7400$88,w
  4207  0FE5  1D03               	skipz
  4208  0FE6  1787               	bsf	7,7	;volatile
  4209  0FE7  1903               	skipnz
  4210  0FE8  1387               	bcf	7,7	;volatile
  4211                           
  4212                           ;TCC_escravo.c: 193: RB6=!(RB5&&RB4);
  4213  0FE9  01A2               	clrf	_AX7400$89
  4214  0FEA  0AA2               	incf	_AX7400$89,f
  4215  0FEB  1A86               	btfsc	6,5	;volatile
  4216  0FEC  1E06               	btfss	6,4	;volatile
  4217  0FED  2FEF               	goto	l2317
  4218  0FEE  01A2               	clrf	_AX7400$89
  4219  0FEF                     l2317:	
  4220  0FEF  0822               	movf	_AX7400$89,w
  4221  0FF0  1D03               	skipz
  4222  0FF1  1706               	bsf	6,6	;volatile
  4223  0FF2  1903               	skipnz
  4224  0FF3  1306               	bcf	6,6	;volatile
  4225                           
  4226                           ;TCC_escravo.c: 194: RC2=!(RC1&&RC0);
  4227  0FF4  01A3               	clrf	_AX7400$90
  4228  0FF5  0AA3               	incf	_AX7400$90,f
  4229  0FF6  1887               	btfsc	7,1	;volatile
  4230  0FF7  1C07               	btfss	7,0	;volatile
  4231  0FF8  2FFA               	goto	l2327
  4232  0FF9  01A3               	clrf	_AX7400$90
  4233  0FFA                     l2327:	
  4234  0FFA  0823               	movf	_AX7400$90,w
  4235  0FFB  1D03               	skipz
  4236  0FFC  1507               	bsf	7,2	;volatile
  4237  0FFD  1903               	skipnz
  4238  0FFE  1107               	bcf	7,2	;volatile
  4239  0FFF  2FD2               	goto	l2289
  4240  1000                     __end_of_AX7400:	
  4241                           
  4242                           	psect	text15
  4243  0498                     __ptext15:	
  4244 ;; *************** function _modo_programacao *****************
  4245 ;; Defined at:
  4246 ;;		line 143 in file "TCC_escravo.c"
  4247 ;; Parameters:    Size  Location     Type
  4248 ;;		None
  4249 ;; Auto vars:     Size  Location     Type
  4250 ;;		None
  4251 ;; Return value:  Size  Location     Type
  4252 ;;		None               void
  4253 ;; Registers used:
  4254 ;;		wreg, status,2, status,0, pclath, cstack
  4255 ;; Tracked objects:
  4256 ;;		On entry : 0/0
  4257 ;;		On exit  : 0/0
  4258 ;;		Unchanged: 0/0
  4259 ;; Data sizes:     COMMON   BANK0   BANK1   BANK2
  4260 ;;      Params:         0       0       0       0
  4261 ;;      Locals:         0       0       0       0
  4262 ;;      Temps:          0       1       0       0
  4263 ;;      Totals:         0       1       0       0
  4264 ;;Total ram usage:        1 bytes
  4265 ;; Hardware stack levels used:    1
  4266 ;; Hardware stack levels required when called:    2
  4267 ;; This function calls:
  4268 ;;		_spi_init
  4269 ;;		_spi_write
  4270 ;;		_gravar_eeprom
  4271 ;; This function is called by:
  4272 ;;		_main
  4273 ;; This function uses a non-reentrant model
  4274 ;;
  4275                           
  4276                           
  4277                           ;psect for function _modo_programacao
  4278  0498                     _modo_programacao:	
  4279                           
  4280                           ;TCC_escravo.c: 144: RA0=1;
  4281                           
  4282                           ;incstack = 0
  4283                           ; Regs used in _modo_programacao: [wreg+status,2+status,0+pclath+cstack]
  4284  0498  1283               	bcf	3,5	;RP0=0, select bank0
  4285  0499  1303               	bcf	3,6	;RP1=0, select bank0
  4286  049A  1405               	bsf	5,0	;volatile
  4287                           
  4288                           ;TCC_escravo.c: 145: spi_init();
  4289  049B  158A  275C  118A   	fcall	_spi_init
  4290                           
  4291                           ;TCC_escravo.c: 146: EEIE=1;
  4292  049E  1683               	bsf	3,5	;RP0=1, select bank1
  4293  049F  1303               	bcf	3,6	;RP1=0, select bank1
  4294  04A0  160D               	bsf	13,4	;volatile
  4295                           
  4296                           ;TCC_escravo.c: 147: spi_write(0xAA);
  4297  04A1  30AA               	movlw	170
  4298  04A2  118A  27F8  118A   	fcall	_spi_write
  4299  04A5                     l2233:	
  4300                           ;TCC_escravo.c: 148: while(DADO_RX==0xFF);
  4301                           
  4302  04A5  0875               	movf	_DADO_RX,w
  4303  04A6  3AFF               	xorlw	255
  4304  04A7  1903               	skipnz
  4305  04A8  2CA5               	goto	l2233
  4306                           
  4307                           ;TCC_escravo.c: 149: if(DADO_RX==0xAC){
  4308  04A9  0875               	movf	_DADO_RX,w
  4309  04AA  3AAC               	xorlw	172
  4310  04AB  1D03               	skipz
  4311  04AC  2CD0               	goto	l2253
  4312  04AD                     l2239:	
  4313                           ;TCC_escravo.c: 150: while(DADO_RX==0xAC);
  4314                           
  4315  04AD  0875               	movf	_DADO_RX,w
  4316  04AE  3AAC               	xorlw	172
  4317  04AF  1903               	skipnz
  4318  04B0  2CAD               	goto	l2239
  4319                           
  4320                           ;TCC_escravo.c: 151: SSPIE=0;
  4321  04B1  1683               	bsf	3,5	;RP0=1, select bank1
  4322  04B2  1303               	bcf	3,6	;RP1=0, select bank1
  4323  04B3  118C               	bcf	12,3	;volatile
  4324                           
  4325                           ;TCC_escravo.c: 152: gravar_eeprom(0x01);
  4326  04B4  3001               	movlw	1
  4327  04B5  158A  2780  118A   	fcall	_gravar_eeprom
  4328  04B8  0063               	sleep	;# 
  4329                           
  4330                           ;TCC_escravo.c: 154: RD=1;
  4331  04B9  1683               	bsf	3,5	;RP0=1, select bank3
  4332  04BA  1703               	bsf	3,6	;RP1=1, select bank3
  4333  04BB  140C               	bsf	12,0	;volatile
  4334                           
  4335                           ;TCC_escravo.c: 155: spi_write(EEDAT);
  4336  04BC  1283               	bcf	3,5	;RP0=0, select bank2
  4337  04BD  1703               	bsf	3,6	;RP1=1, select bank2
  4338  04BE  080C               	movf	12,w	;volatile
  4339  04BF  118A  27F8  118A   	fcall	_spi_write
  4340                           
  4341                           ;TCC_escravo.c: 156: SSPIE=1;
  4342  04C2  1683               	bsf	3,5	;RP0=1, select bank1
  4343  04C3  1303               	bcf	3,6	;RP1=0, select bank1
  4344  04C4  158C               	bsf	12,3	;volatile
  4345  04C5                     l2247:	
  4346                           ;TCC_escravo.c: 157: while(DADO_RX!=0xCC);
  4347                           
  4348  04C5  0875               	movf	_DADO_RX,w
  4349  04C6  3ACC               	xorlw	204
  4350  04C7  1D03               	skipz
  4351  04C8  2CC5               	goto	l2247
  4352                           
  4353                           ;TCC_escravo.c: 158: DADO_RX=0xFF;
  4354  04C9  30FF               	movlw	255
  4355  04CA  1283               	bcf	3,5	;RP0=0, select bank0
  4356  04CB  1303               	bcf	3,6	;RP1=0, select bank0
  4357  04CC  00A1               	movwf	??_modo_programacao
  4358  04CD  0821               	movf	??_modo_programacao,w
  4359  04CE  00F5               	movwf	_DADO_RX
  4360                           
  4361                           ;TCC_escravo.c: 159: return;
  4362  04CF  0008               	return
  4363  04D0                     l2253:	
  4364                           
  4365                           ;TCC_escravo.c: 160: }
  4366                           ;TCC_escravo.c: 161: if(DADO_RX==0xBD){
  4367  04D0  0875               	movf	_DADO_RX,w
  4368  04D1  3ABD               	xorlw	189
  4369  04D2  1D03               	skipz
  4370  04D3  2CED               	goto	l2267
  4371  04D4                     l2257:	
  4372                           ;TCC_escravo.c: 162: while(DADO_RX==0xBD);
  4373                           
  4374  04D4  0875               	movf	_DADO_RX,w
  4375  04D5  3ABD               	xorlw	189
  4376  04D6  1903               	skipnz
  4377  04D7  2CD4               	goto	l2257
  4378                           
  4379                           ;TCC_escravo.c: 163: SSPIE=0;
  4380  04D8  1683               	bsf	3,5	;RP0=1, select bank1
  4381  04D9  1303               	bcf	3,6	;RP1=0, select bank1
  4382  04DA  118C               	bcf	12,3	;volatile
  4383                           
  4384                           ;TCC_escravo.c: 164: gravar_eeprom(0x21);
  4385  04DB  3021               	movlw	33
  4386  04DC  158A  2780  118A   	fcall	_gravar_eeprom
  4387  04DF  0063               	sleep	;# 
  4388                           
  4389                           ;TCC_escravo.c: 166: RD=1;
  4390  04E0  1683               	bsf	3,5	;RP0=1, select bank3
  4391  04E1  1703               	bsf	3,6	;RP1=1, select bank3
  4392  04E2  140C               	bsf	12,0	;volatile
  4393                           
  4394                           ;TCC_escravo.c: 167: spi_write(0xAA);
  4395  04E3  30AA               	movlw	170
  4396  04E4  118A  27F8         	fcall	_spi_write
  4397                           
  4398                           ;TCC_escravo.c: 168: DADO_RX=0xFF;
  4399  04E6  30FF               	movlw	255
  4400  04E7  1283               	bcf	3,5	;RP0=0, select bank0
  4401  04E8  1303               	bcf	3,6	;RP1=0, select bank0
  4402  04E9  00A1               	movwf	??_modo_programacao
  4403  04EA  0821               	movf	??_modo_programacao,w
  4404  04EB  00F5               	movwf	_DADO_RX
  4405                           
  4406                           ;TCC_escravo.c: 169: return;
  4407  04EC  0008               	return
  4408  04ED                     l2267:	
  4409                           
  4410                           ;TCC_escravo.c: 170: }
  4411                           ;TCC_escravo.c: 171: if(DADO_RX==0xBE){
  4412  04ED  0875               	movf	_DADO_RX,w
  4413  04EE  3ABE               	xorlw	190
  4414  04EF  1D03               	skipz
  4415  04F0  0008               	return
  4416  04F1                     l2271:	
  4417                           ;TCC_escravo.c: 172: while(DADO_RX==0xBE);
  4418                           
  4419  04F1  0875               	movf	_DADO_RX,w
  4420  04F2  3ABE               	xorlw	190
  4421  04F3  1903               	skipnz
  4422  04F4  2CF1               	goto	l2271
  4423                           
  4424                           ;TCC_escravo.c: 173: SSPIE=0;
  4425  04F5  1683               	bsf	3,5	;RP0=1, select bank1
  4426  04F6  1303               	bcf	3,6	;RP1=0, select bank1
  4427  04F7  118C               	bcf	12,3	;volatile
  4428                           
  4429                           ;TCC_escravo.c: 174: gravar_eeprom(0x22);
  4430  04F8  3022               	movlw	34
  4431  04F9  158A  2780  118A   	fcall	_gravar_eeprom
  4432  04FC  0063               	sleep	;# 
  4433                           
  4434                           ;TCC_escravo.c: 176: RD=1;
  4435  04FD  1683               	bsf	3,5	;RP0=1, select bank3
  4436  04FE  1703               	bsf	3,6	;RP1=1, select bank3
  4437  04FF  140C               	bsf	12,0	;volatile
  4438                           
  4439                           ;TCC_escravo.c: 177: spi_write(EEDAT);
  4440  0500  1283               	bcf	3,5	;RP0=0, select bank2
  4441  0501  1703               	bsf	3,6	;RP1=1, select bank2
  4442  0502  080C               	movf	12,w	;volatile
  4443  0503  118A  27F8  118A   	fcall	_spi_write
  4444                           
  4445                           ;TCC_escravo.c: 178: SSPIE=1;
  4446  0506  1683               	bsf	3,5	;RP0=1, select bank1
  4447  0507  1303               	bcf	3,6	;RP1=0, select bank1
  4448  0508  158C               	bsf	12,3	;volatile
  4449  0509                     l2279:	
  4450                           ;TCC_escravo.c: 179: while(DADO_RX!=0xCC);
  4451                           
  4452  0509  0875               	movf	_DADO_RX,w
  4453  050A  3ACC               	xorlw	204
  4454  050B  1D03               	skipz
  4455  050C  2D09               	goto	l2279
  4456                           
  4457                           ;TCC_escravo.c: 180: DADO_RX=0xFF;
  4458  050D  30FF               	movlw	255
  4459  050E  1283               	bcf	3,5	;RP0=0, select bank0
  4460  050F  1303               	bcf	3,6	;RP1=0, select bank0
  4461  0510  00A1               	movwf	??_modo_programacao
  4462  0511  0821               	movf	??_modo_programacao,w
  4463  0512  00F5               	movwf	_DADO_RX
  4464                           
  4465                           ;TCC_escravo.c: 181: return;
  4466  0513  0008               	return
  4467  0514                     __end_of_modo_programacao:	
  4468                           
  4469                           	psect	text16
  4470  0F80                     __ptext16:	
  4471 ;; *************** function _gravar_eeprom *****************
  4472 ;; Defined at:
  4473 ;;		line 131 in file "TCC_escravo.c"
  4474 ;; Parameters:    Size  Location     Type
  4475 ;;  adr             1    wreg     unsigned char 
  4476 ;; Auto vars:     Size  Location     Type
  4477 ;;  adr             1    0[BANK0 ] unsigned char 
  4478 ;; Return value:  Size  Location     Type
  4479 ;;		None               void
  4480 ;; Registers used:
  4481 ;;		wreg
  4482 ;; Tracked objects:
  4483 ;;		On entry : 0/0
  4484 ;;		On exit  : 0/0
  4485 ;;		Unchanged: 0/0
  4486 ;; Data sizes:     COMMON   BANK0   BANK1   BANK2
  4487 ;;      Params:         0       0       0       0
  4488 ;;      Locals:         0       1       0       0
  4489 ;;      Temps:          0       0       0       0
  4490 ;;      Totals:         0       1       0       0
  4491 ;;Total ram usage:        1 bytes
  4492 ;; Hardware stack levels used:    1
  4493 ;; Hardware stack levels required when called:    1
  4494 ;; This function calls:
  4495 ;;		Nothing
  4496 ;; This function is called by:
  4497 ;;		_modo_programacao
  4498 ;; This function uses a non-reentrant model
  4499 ;;
  4500                           
  4501                           
  4502                           ;psect for function _gravar_eeprom
  4503  0F80                     _gravar_eeprom:	
  4504                           
  4505                           ;incstack = 0
  4506                           ; Regs used in _gravar_eeprom: [wreg]
  4507                           ;gravar_eeprom@adr stored from wreg
  4508  0F80  1283               	bcf	3,5	;RP0=0, select bank0
  4509  0F81  1303               	bcf	3,6	;RP1=0, select bank0
  4510  0F82  00A0               	movwf	gravar_eeprom@adr
  4511                           
  4512                           ;TCC_escravo.c: 132: GIE=0;
  4513  0F83  138B               	bcf	11,7	;volatile
  4514                           
  4515                           ;TCC_escravo.c: 133: WREN=1;
  4516  0F84  1683               	bsf	3,5	;RP0=1, select bank3
  4517  0F85  1703               	bsf	3,6	;RP1=1, select bank3
  4518  0F86  150C               	bsf	12,2	;volatile
  4519                           
  4520                           ;TCC_escravo.c: 134: EEADR=adr;
  4521  0F87  1283               	bcf	3,5	;RP0=0, select bank0
  4522  0F88  1303               	bcf	3,6	;RP1=0, select bank0
  4523  0F89  0820               	movf	gravar_eeprom@adr,w
  4524  0F8A  1283               	bcf	3,5	;RP0=0, select bank2
  4525  0F8B  1703               	bsf	3,6	;RP1=1, select bank2
  4526  0F8C  008D               	movwf	13	;volatile
  4527                           
  4528                           ;TCC_escravo.c: 135: EEDAT=DADO_RX;
  4529  0F8D  0875               	movf	_DADO_RX,w
  4530  0F8E  008C               	movwf	12	;volatile
  4531                           
  4532                           ;TCC_escravo.c: 136: EECON2=0x55;
  4533  0F8F  3055               	movlw	85
  4534  0F90  1683               	bsf	3,5	;RP0=1, select bank3
  4535  0F91  1703               	bsf	3,6	;RP1=1, select bank3
  4536  0F92  008D               	movwf	13	;volatile
  4537                           
  4538                           ;TCC_escravo.c: 137: EECON2=0xAA;
  4539  0F93  30AA               	movlw	170
  4540  0F94  008D               	movwf	13	;volatile
  4541                           
  4542                           ;TCC_escravo.c: 138: WR=1;
  4543  0F95  148C               	bsf	12,1	;volatile
  4544                           
  4545                           ;TCC_escravo.c: 139: GIE=1;
  4546  0F96  178B               	bsf	11,7	;volatile
  4547                           
  4548                           ;TCC_escravo.c: 140: WREN=0;
  4549  0F97  110C               	bcf	12,2	;volatile
  4550  0F98  0008               	return
  4551  0F99                     __end_of_gravar_eeprom:	
  4552                           
  4553                           	psect	text17
  4554  07F8                     __ptext17:	
  4555 ;; *************** function _spi_write *****************
  4556 ;; Defined at:
  4557 ;;		line 41 in file "TCC_escravo.c"
  4558 ;; Parameters:    Size  Location     Type
  4559 ;;  dado            1    wreg     unsigned char 
  4560 ;; Auto vars:     Size  Location     Type
  4561 ;;  dado            1    0[BANK0 ] unsigned char 
  4562 ;; Return value:  Size  Location     Type
  4563 ;;		None               void
  4564 ;; Registers used:
  4565 ;;		wreg
  4566 ;; Tracked objects:
  4567 ;;		On entry : 0/0
  4568 ;;		On exit  : 0/0
  4569 ;;		Unchanged: 0/0
  4570 ;; Data sizes:     COMMON   BANK0   BANK1   BANK2
  4571 ;;      Params:         0       0       0       0
  4572 ;;      Locals:         0       1       0       0
  4573 ;;      Temps:          0       0       0       0
  4574 ;;      Totals:         0       1       0       0
  4575 ;;Total ram usage:        1 bytes
  4576 ;; Hardware stack levels used:    1
  4577 ;; Hardware stack levels required when called:    1
  4578 ;; This function calls:
  4579 ;;		Nothing
  4580 ;; This function is called by:
  4581 ;;		_modo_programacao
  4582 ;; This function uses a non-reentrant model
  4583 ;;
  4584                           
  4585                           
  4586                           ;psect for function _spi_write
  4587  07F8                     _spi_write:	
  4588                           
  4589                           ;incstack = 0
  4590                           ; Regs used in _spi_write: [wreg]
  4591                           ;spi_write@dado stored from wreg
  4592  07F8  1283               	bcf	3,5	;RP0=0, select bank0
  4593  07F9  1303               	bcf	3,6	;RP1=0, select bank0
  4594  07FA  00A0               	movwf	spi_write@dado
  4595                           
  4596                           ;TCC_escravo.c: 42: SSPBUF=dado;
  4597  07FB  0820               	movf	spi_write@dado,w
  4598  07FC  0093               	movwf	19	;volatile
  4599  07FD  0008               	return
  4600  07FE                     __end_of_spi_write:	
  4601                           
  4602                           	psect	text18
  4603  0F5C                     __ptext18:	
  4604 ;; *************** function _spi_init *****************
  4605 ;; Defined at:
  4606 ;;		line 28 in file "TCC_escravo.c"
  4607 ;; Parameters:    Size  Location     Type
  4608 ;;		None
  4609 ;; Auto vars:     Size  Location     Type
  4610 ;;		None
  4611 ;; Return value:  Size  Location     Type
  4612 ;;		None               void
  4613 ;; Registers used:
  4614 ;;		wreg, status,2
  4615 ;; Tracked objects:
  4616 ;;		On entry : 0/0
  4617 ;;		On exit  : 0/0
  4618 ;;		Unchanged: 0/0
  4619 ;; Data sizes:     COMMON   BANK0   BANK1   BANK2
  4620 ;;      Params:         0       0       0       0
  4621 ;;      Locals:         0       0       0       0
  4622 ;;      Temps:          0       0       0       0
  4623 ;;      Totals:         0       0       0       0
  4624 ;;Total ram usage:        0 bytes
  4625 ;; Hardware stack levels used:    1
  4626 ;; Hardware stack levels required when called:    1
  4627 ;; This function calls:
  4628 ;;		Nothing
  4629 ;; This function is called by:
  4630 ;;		_modo_programacao
  4631 ;; This function uses a non-reentrant model
  4632 ;;
  4633                           
  4634                           
  4635                           ;psect for function _spi_init
  4636  0F5C                     _spi_init:	
  4637                           
  4638                           ;TCC_escravo.c: 32: TRISC7=0;
  4639                           
  4640                           ;incstack = 0
  4641                           ; Regs used in _spi_init: [wreg+status,2]
  4642  0F5C  1683               	bsf	3,5	;RP0=1, select bank1
  4643  0F5D  1303               	bcf	3,6	;RP1=0, select bank1
  4644  0F5E  1387               	bcf	7,7	;volatile
  4645                           
  4646                           ;TCC_escravo.c: 33: TRISB6=1;
  4647  0F5F  1706               	bsf	6,6	;volatile
  4648                           
  4649                           ;TCC_escravo.c: 35: SSPCON = 0b00110100;
  4650  0F60  3034               	movlw	52
  4651  0F61  1283               	bcf	3,5	;RP0=0, select bank0
  4652  0F62  1303               	bcf	3,6	;RP1=0, select bank0
  4653  0F63  0094               	movwf	20	;volatile
  4654                           
  4655                           ;TCC_escravo.c: 37: SSPSTAT = 0b00000000;
  4656  0F64  1683               	bsf	3,5	;RP0=1, select bank1
  4657  0F65  1303               	bcf	3,6	;RP1=0, select bank1
  4658  0F66  0194               	clrf	20	;volatile
  4659                           
  4660                           ;TCC_escravo.c: 38: SSPIE=1;
  4661  0F67  158C               	bsf	12,3	;volatile
  4662  0F68  0008               	return
  4663  0F69                     __end_of_spi_init:	
  4664                           
  4665                           	psect	text19
  4666  0F99                     __ptext19:	
  4667 ;; *************** function _xandi *****************
  4668 ;; Defined at:
  4669 ;;		line 117 in file "TCC_escravo.c"
  4670 ;; Parameters:    Size  Location     Type
  4671 ;;		None
  4672 ;; Auto vars:     Size  Location     Type
  4673 ;;		None
  4674 ;; Return value:  Size  Location     Type
  4675 ;;		None               void
  4676 ;; Registers used:
  4677 ;;		wreg
  4678 ;; Tracked objects:
  4679 ;;		On entry : 0/0
  4680 ;;		On exit  : 0/0
  4681 ;;		Unchanged: 0/0
  4682 ;; Data sizes:     COMMON   BANK0   BANK1   BANK2
  4683 ;;      Params:         0       0       0       0
  4684 ;;      Locals:         0       0       0       0
  4685 ;;      Temps:          5       0       0       0
  4686 ;;      Totals:         5       0       0       0
  4687 ;;Total ram usage:        5 bytes
  4688 ;; Hardware stack levels used:    1
  4689 ;; This function calls:
  4690 ;;		Nothing
  4691 ;; This function is called by:
  4692 ;;		Interrupt level 1
  4693 ;; This function uses a non-reentrant model
  4694 ;;
  4695                           
  4696                           
  4697                           ;psect for function _xandi
  4698  0F99                     _xandi:	
  4699                           
  4700                           ;TCC_escravo.c: 119: if (SSPIF && SSPIE) {
  4701  0F99  1D8C               	btfss	12,3	;volatile
  4702  0F9A  2FB1               	goto	i1l949
  4703  0F9B  1683               	bsf	3,5	;RP0=1, select bank1
  4704  0F9C  1303               	bcf	3,6	;RP1=0, select bank1
  4705  0F9D  1D8C               	btfss	12,3	;volatile
  4706  0F9E  2FB1               	goto	i1l949
  4707                           
  4708                           ;TCC_escravo.c: 120: SSPIF=0;
  4709  0F9F  1283               	bcf	3,5	;RP0=0, select bank0
  4710  0FA0  1303               	bcf	3,6	;RP1=0, select bank0
  4711  0FA1  118C               	bcf	12,3	;volatile
  4712                           
  4713                           ;TCC_escravo.c: 121: DADO_RX=SSPBUF;
  4714  0FA2  0813               	movf	19,w	;volatile
  4715  0FA3  00F0               	movwf	??_xandi
  4716  0FA4  0870               	movf	??_xandi,w
  4717  0FA5  00F5               	movwf	_DADO_RX
  4718                           
  4719                           ;TCC_escravo.c: 122: if(DADO_RX==0xAA) DADO_RX=0xFF;
  4720  0FA6  0875               	movf	_DADO_RX,w
  4721  0FA7  3AAA               	xorlw	170
  4722  0FA8  1D03               	skipz
  4723  0FA9  2FAE               	goto	i1l947
  4724  0FAA  30FF               	movlw	255
  4725  0FAB  00F0               	movwf	??_xandi
  4726  0FAC  0870               	movf	??_xandi,w
  4727  0FAD  00F5               	movwf	_DADO_RX
  4728  0FAE                     i1l947:	
  4729                           
  4730                           ;TCC_escravo.c: 123: BF=0;
  4731  0FAE  1683               	bsf	3,5	;RP0=1, select bank1
  4732  0FAF  1303               	bcf	3,6	;RP1=0, select bank1
  4733  0FB0  1014               	bcf	20,0	;volatile
  4734  0FB1                     i1l949:	
  4735                           
  4736                           ;TCC_escravo.c: 124: }
  4737                           ;TCC_escravo.c: 126: if (EEIF && EEIE) {
  4738  0FB1  1283               	bcf	3,5	;RP0=0, select bank0
  4739  0FB2  1E0D               	btfss	13,4	;volatile
  4740  0FB3  2FBB               	goto	i1l142
  4741  0FB4  1683               	bsf	3,5	;RP0=1, select bank1
  4742  0FB5  1303               	bcf	3,6	;RP1=0, select bank1
  4743  0FB6  1E0D               	btfss	13,4	;volatile
  4744  0FB7  2FBB               	goto	i1l142
  4745                           
  4746                           ;TCC_escravo.c: 127: EEIF=0;
  4747  0FB8  1283               	bcf	3,5	;RP0=0, select bank0
  4748  0FB9  1303               	bcf	3,6	;RP1=0, select bank0
  4749  0FBA  120D               	bcf	13,4	;volatile
  4750  0FBB                     i1l142:	
  4751  0FBB  0874               	movf	??_xandi+4,w
  4752  0FBC  1283               	bcf	3,5	;RP0=0, select bank0
  4753  0FBD  00FF               	movwf	127
  4754  0FBE  0873               	movf	??_xandi+3,w
  4755  0FBF  008A               	movwf	10
  4756  0FC0  0872               	movf	??_xandi+2,w
  4757  0FC1  0084               	movwf	4
  4758  0FC2  0E71               	swapf	(??_xandi+1)^(0+-128),w
  4759  0FC3  0083               	movwf	3
  4760  0FC4  0EFE               	swapf	126,f
  4761  0FC5  0E7E               	swapf	126,w
  4762  0FC6  0009               	retfie
  4763  0FC7                     __end_of_xandi:	
  4764  007E                     btemp	set	126	;btemp
  4765  007E                     wtemp0	set	126
  4766                           
  4767                           	psect	intentry
  4768  0004                     __pintentry:	
  4769                           ;incstack = 0
  4770                           ; Regs used in _xandi: [wreg]
  4771                           
  4772  0004                     interrupt_function:	
  4773  007E                     saved_w	set	btemp
  4774  0004  00FE               	movwf	btemp
  4775  0005  0E03               	swapf	3,w
  4776  0006  00F1               	movwf	??_xandi+1
  4777  0007  0804               	movf	4,w
  4778  0008  00F2               	movwf	??_xandi+2
  4779  0009  080A               	movf	10,w
  4780  000A  00F3               	movwf	??_xandi+3
  4781  000B  1283               	bcf	3,5	;RP0=0, select bank0
  4782  000C  1303               	bcf	3,6	;RP1=0, select bank0
  4783  000D  087F               	movf	btemp+1,w
  4784  000E  00F4               	movwf	??_xandi+4
  4785  000F  158A  2F99         	ljmp	_xandi


Data Sizes:
    Strings     0
    Constant    0
    Data        5
    BSS         0
    Persistent  0
    Stack       0

Auto Spaces:
    Space          Size  Autos    Used
    COMMON           14      5      10
    BANK0            80      4       5
    BANK1            80      0       0
    BANK2            80      0       0

Pointer List with Targets:

    None.

Critical Paths under _main in COMMON

    None.

Critical Paths under _xandi in COMMON

    None.

Critical Paths under _main in BANK0

    _main->_AX7400
    _main->_AX7402
    _main->_AX7408
    _main->_AX7432
    _AX7447->_tabela
    _modo_programacao->_spi_write
    _modo_programacao->_gravar_eeprom

Critical Paths under _xandi in BANK0

    None.

Critical Paths under _main in BANK1

    None.

Critical Paths under _xandi in BANK1

    None.

Critical Paths under _main in BANK2

    None.

Critical Paths under _xandi in BANK2

    None.

Call Graph Tables:

 ---------------------------------------------------------------------------------
 (Depth) Function   	        Calls       Base Space   Used Autos Params    Refs
 ---------------------------------------------------------------------------------
 (0) _main                                                 0     0      0    1212
                   _modo_programacao
                             _AX7400
                             _AX7402
                             _AX7404
                             _AX7408
                             _AX7432
                             _AX7447
                             _AX7473
                             _AX7474
                             _AX7486
                            _AX74165
                            _AX74191
                            _AX74192
                      _select_portas
 ---------------------------------------------------------------------------------
 (1) _select_portas                                        2     2      0       0
                                              0 BANK0      2     2      0
 ---------------------------------------------------------------------------------
 (1) _AX74192                                              2     2      0     360
                                              0 BANK0      2     2      0
 ---------------------------------------------------------------------------------
 (1) _AX74191                                              2     2      0     316
                                              0 BANK0      2     2      0
 ---------------------------------------------------------------------------------
 (1) _AX74165                                              2     2      0      62
                                              0 BANK0      2     2      0
 ---------------------------------------------------------------------------------
 (1) _AX7486                                               1     1      0       0
                                              0 BANK0      1     1      0
 ---------------------------------------------------------------------------------
 (1) _AX7474                                               0     0      0       0
 ---------------------------------------------------------------------------------
 (1) _AX7473                                               0     0      0       0
 ---------------------------------------------------------------------------------
 (1) _AX7447                                               2     2      0      46
                                              1 BANK0      2     2      0
                             _tabela
 ---------------------------------------------------------------------------------
 (2) _tabela                                               1     1      0      22
                                              0 BANK0      1     1      0
 ---------------------------------------------------------------------------------
 (1) _AX7432                                               4     4      0      96
                                              0 BANK0      4     4      0
 ---------------------------------------------------------------------------------
 (1) _AX7408                                               4     4      0      96
                                              0 BANK0      4     4      0
 ---------------------------------------------------------------------------------
 (1) _AX7404                                               0     0      0       0
 ---------------------------------------------------------------------------------
 (1) _AX7402                                               4     4      0      96
                                              0 BANK0      4     4      0
 ---------------------------------------------------------------------------------
 (1) _AX7400                                               4     4      0      96
                                              0 BANK0      4     4      0
 ---------------------------------------------------------------------------------
 (1) _modo_programacao                                     1     1      0      44
                                              1 BANK0      1     1      0
                           _spi_init
                          _spi_write
                      _gravar_eeprom
 ---------------------------------------------------------------------------------
 (2) _gravar_eeprom                                        1     1      0      22
                                              0 BANK0      1     1      0
 ---------------------------------------------------------------------------------
 (2) _spi_write                                            1     1      0      22
                                              0 BANK0      1     1      0
 ---------------------------------------------------------------------------------
 (2) _spi_init                                             0     0      0       0
 ---------------------------------------------------------------------------------
 Estimated maximum stack depth 2
 ---------------------------------------------------------------------------------
 (Depth) Function   	        Calls       Base Space   Used Autos Params    Refs
 ---------------------------------------------------------------------------------
 (3) _xandi                                                5     5      0       0
                                              0 COMMON     5     5      0
 ---------------------------------------------------------------------------------
 Estimated maximum stack depth 3
 ---------------------------------------------------------------------------------

 Call Graph Graphs:

 _main (ROOT)
   _modo_programacao
     _spi_init
     _spi_write
     _gravar_eeprom
   _AX7400
   _AX7402
   _AX7404
   _AX7408
   _AX7432
   _AX7447
     _tabela
   _AX7473
   _AX7474
   _AX7486
   _AX74165
   _AX74191
   _AX74192
   _select_portas

 _xandi (ROOT)

 Address spaces:
Name               Size   Autos  Total    Cost      Usage
SFR3                 0      0       0       4        0.0%
BITSFR3              0      0       0       4        0.0%
BANK2               50      0       0       7        0.0%
BITBANK2            50      0       0       6        0.0%
SFR2                 0      0       0       5        0.0%
BITSFR2              0      0       0       5        0.0%
BANK1               50      0       0       5        0.0%
BITBANK1            50      0       0       4        0.0%
SFR1                 0      0       0       2        0.0%
BITSFR1              0      0       0       2        0.0%
BANK0               50      4       5       3        6.3%
BITBANK0            50      0       0       9        0.0%
SFR0                 0      0       0       1        0.0%
BITSFR0              0      0       0       1        0.0%
COMMON               E      5       A       1       71.4%
BITCOMMON            E      0       1       0        7.1%
CODE                 0      0       0       0        0.0%
DATA                 0      0      11      10        0.0%
ABS                  0      0       F       8        0.0%
NULL                 0      0       0       0        0.0%
STACK                0      0       2       2        0.0%
EEDATA             100      0       0       0        0.0%


Microchip Technology PIC Macro Assembler V1.20 build 52243 
Symbol Table                                                                                   Fri Nov 08 14:22:02 2013

                        pc 0002                __CFG_CP$OFF 0000                         _BF 04A0  
                       _RD 0C60                         _WR 0C61                         fsr 0004  
                      l300 0540                        l301 0543                        l302 0546  
                      l303 0549                        l304 054C                        l321 02DD  
                      l401 0197                        l250 0677                        l322 02DC  
                      l235 0715                        l251 067C                        l316 02C7  
                      l325 032F                        l254 069C                        l270 0616  
                      l318 02CF                        l247 0672                        l271 061B  
                      l343 01C6                        l344 01C7                        l257 06A1  
                      l249 0681                        l345 01CF                        l258 06A6  
                      l274 063B                        l346 01D0                        l267 0611  
                      l427 03E7                        l428 0415                        l277 0640  
                      l269 0620                        l285 0594                        l349 0265  
                      l278 0645                        l374 00A2                        l383 00F8  
                      l392 014E                        l297 0537                        l298 053A  
                      l299 053D                        _GIE 005F                        _RA0 0028  
                      _RA1 0029                        _RA2 002A                        _RC0 0038  
                      _RA4 002C                        _RC1 0039                        _RA5 002D  
                      _RC2 003A                        _RB4 0034                        _RC3 003B  
                      _RB5 0035                        _RC4 003C                        _RB6 0036  
                      _RC5 003D                        _RB7 0037                        _RC6 003E  
                      _RC7 003F               __CFG_CPD$OFF 0000            __end_of_AX74165 0589  
          __end_of_AX74191 0378            __end_of_AX74192 02AF                        _up1 03C8  
                      _up2 03C9                        fsr0 0004                       S3151 0800  
                     S3153 080E                       S3155 081C                       S3157 082A  
                     S3159 07D8                       l2201 0468                       l3001 03C7  
                     l2203 046F                       l3011 03DB                       l3003 03CB  
                     l2205 0476                       l2213 048B                       l3013 03DF  
                     l3005 03CF                       l2207 047D                       l3015 03E3  
                     l3007 03D3                       l2233 04A5                       l2401 0778  
                     l2209 0484                       l3009 03D7                       l2307 0FE4  
                     l2411 0783                       l3019 03EA                       l2253 04D0  
                     l2317 0FEF                       l2341 07B1                       l2333 07AA  
                     l2421 078E                       l2181 0422                       l2271 04F1  
                     l2247 04C5                       l2239 04AD                       l2327 0FFA  
                     l2351 07BC                       l2431 0799                       l2191 0445  
                     l2183 0429                       l2257 04D4                       l2361 07C7  
                     l2193 044C                       l2185 0430                       l2505 0727  
                     l2513 0656                       l2267 04ED                       l2371 07D2  
                     l2195 0453                       l2187 0437                       l2179 041B  
                     l2381 06CA                       l2445 073F                       l2437 0738  
                     l2197 045A                       l2189 043E                       l2279 0509  
                     l2383 06D3                       l2455 074A                       l2199 0461  
                     l2623 0526                       l2297 0FD9                       l2289 0FD2  
                     l2385 06DC                       l2377 06B7                       l2393 0771  
                     l2465 0755                       l2625 052A                       l2713 02D6  
                     l2705 02CD                       l2801 01E7                       l2387 06E5  
                     l2379 06C1                       l2475 0760                       l2483 0711  
                     l2563 05F5                       l2707 02D0                       l2803 01F0  
                     l2485 06FE                       l2629 052C                       l2741 0315  
                     l2733 02F3                       l2717 02DA                       l2805 0201  
                     l2901 011B                       l2663 0564                       l2743 0326  
                     l2823 023A                       l2807 0212                       l2903 0122  
                     l2911 0158                       l2497 071C                       l2673 0570  
                     l2657 055E                       l2665 0568                       l2737 02FB  
                     l2825 024B                       l2809 0223                       l2921 0188  
                     l2913 0165                       l2905 0130                       l2675 0574  
                     l2739 0304                       l2843 027B                       l2827 025C  
                     l2923 0188                       l2915 016B                       l2907 013F  
                     l2677 057D                       l2693 02C0                       l2773 01BF  
                     l2917 0171                       l2679 0586                       l2759 0344  
                     l2919 0178                       l2927 01A1                       l2871 0076  
                     l2881 00B9                       l2873 0084                       l2865 0063  
                     l2891 00E9                       l2883 00BF                       l2875 0093  
                     l2867 0069                       l2963 0395                       l2885 00C5  
                     l2869 006F                       l2965 0398                       l2887 00CC  
                     l2895 0102                       l2879 00AC                       l2991 03B3  
                     l2897 010F                       l2889 00DA                       l2993 03B7  
                     l2985 03AA                       l2899 0115                       l2995 03BB  
                     l2997 03BF                       l2999 03C3                       _EEIE 046C  
                     _EEIF 006C                       u5200 066F                       u6010 0552  
                     u6110 0583                       u6030 055B                       u6024 0555  
                     u5330 0690                       u7010 0278                       u5180 0666  
                     u5500 060E                       u7100 02AB                       u5350 0699  
                     u6310 0301                       u4800 06D0                       u5344 0693  
                     u7040 0289                       u7200 007A                       u5194 0669  
                     u6090 057A                       u7210 0080                       u7202 007B  
                     u7035 027E                       u4820 06D9                       u6500 0352  
                     u6340 0312                       u7212 0081                       u7125 0036  
                     u5630 062F                       u7070 029A                       u7054 028C  
                     u6335 0307                       u7135 0058                       u4840 06E2  
                     u4760 06BE                       u5480 0605                       u7400 00D0  
                     u7320 00A8                       u7240 0088                       u7065 028F  
                     u5650 0638                       u5810 05C3                       u5730 0599  
                     u6530 0363                       u6514 0355                       u6370 0323  
                     u7410 00D6                       u7402 00D1                       u7250 008E  
                     u7242 0089                       u4860 06EB                       u4780 06C7  
                     u5644 0632                       u5820 05C9                       u5812 05C4  
                     u5804 05BF                       u5740 059F                       u5732 059A  
                     u7084 029D                       u6700 01ED                       u7412 00D7  
                     u7252 008F                       u6525 0358                       u6365 0318  
                     u5494 0608                       u5830 05D1                       u5822 05CA  
                     u5750 05A7                       u5742 05A0                       u6470 0341  
                     u7095 02A0                       u6560 0374                       u6544 0366  
                     u7600 0126                       u7520 00FE                       u7440 00DE  
                     u7280 0097                       u5850 05D8                       u5770 05AE  
                     u6730 01FE                       u7610 012C                       u7602 0127  
                     u7450 00E4                       u7442 00DF                       u7290 009D  
                     u7282 0098                       u6555 0369                       u6395 0329  
                     u5860 05DE                       u5852 05D9                       u5844 05D4  
                     u5780 05B4                       u5772 05AF                       u5764 05AA  
                     u7612 012D                       u7452 00E5                       u7292 009E  
                     u6725 01F3                       u5870 05E6                       u5862 05DF  
                     u5790 05BC                       u5782 05B5                       u6910 0259  
                     u6495 0347                       u6760 020F                       u7800 017C  
                     u7720 0154                       u7640 0134                       u7480 00ED  
                     u6905 024E                       u6850 0237                       u7810 0182  
                     u7802 017D                       u7650 013A                       u7642 0135  
                     u7490 00F3                       u7482 00EE                       u6755 0204  
                     u7812 0183                       u7652 013B                       u7492 00F4  
                     u6790 0220                       u6935 025F                       u6880 0248  
                     u7920 019D                       u7680 0143                       u6785 0215  
                     u7690 0149                       u7682 0144                       u6875 023D  
                     u7692 014A                       u7880 018C                       u7890 0192  
                     u7882 018D                       u7892 0193                       _WREN 0C62  
                     _main 0378                       btemp 007E                       start 0011  
            __CFG_IESO$OFF 0000           _modo_programacao 0498                      ?_main 0070  
                    _EEADR 010D                      _EEDAT 010C              __CFG_WDTE$OFF 0000  
                    _ANSEL 011E                      i1l142 0FBB                      i1l947 0FAE  
                    i1l949 0FB1                      _PORTA 0005                      _PORTB 0006  
                    _PORTC 0007                      _TRISA 0085                      _TRISB 0086  
                    _TRISC 0087                      _SSPIE 0463                      _SSPIF 0063  
            __CFG_PWRTE$ON 0000             __CFG_FCMEN$OFF 0000     __size_of_gravar_eeprom 0019  
                    _xandi 0F99             __pbitbssCOMMON 03C8             __CFG_BOREN$OFF 0000  
                    pclath 000A                      status 0003                      wtemp0 007E  
           __CFG_MCLRE$OFF 0000            __initialization 0F69               __end_of_main 0417  
                ??_AX74165 0020                  ??_AX74191 0020                  ??_AX74192 0020  
                   ??_main 0024                  AX7447@num 0022      __end_of_select_portas 01AE  
                   _AX7400 0FC7                     _AX7402 079F                     _AX7404 06AC  
                   _AX7432 072D                     _AX7408 0766                     _AX7447 06EF  
                   _AX7473 064B                     _AX7474 05EA                     _AX7486 0589  
                   _EECON1 018C                     _EECON2 018D                     ?_xandi 0070  
                   _ANSELH 011F                     _INTCON 000B                     _OSCCON 008F  
                   _PORTA1 0076                     _PORTA2 0077                     _PORTA3 0078  
                   _PORTA4 0024                     _TRISB6 0436                     _TRISC7 043F  
                   _SSPCON 0014                     _SSPBUF 0013              _gravar_eeprom 0F80  
                   _tabela 0417               __pdataCOMMON 0075                     saved_w 007E  
         __end_of_spi_init 0F69    __end_of__initialization 0F7D              spi_write@dado 0020  
           ?_gravar_eeprom 0070             __pcstackCOMMON 0070               __pidataBANK0 07FE  
            __end_of_xandi 0FC7                 AX74191@num 0021                 AX74192@num 0021  
                  ?_AX7400 0070                    ?_AX7402 0070                    ?_AX7404 0070  
                  ?_AX7432 0070                    ?_AX7408 0070                    ?_AX7447 0070  
                  ?_AX7473 0070                    ?_AX7474 0070                    ?_AX7486 0070  
                  ??_xandi 0070   __end_of_modo_programacao 0514                 __pmaintext 0378  
               __pintentry 0004                    _AX74165 0514                    _AX74191 02AF  
                  _AX74192 01AE                    ?_tabela 0070                    _DADO_RX 0075  
       __size_of_spi_write 0006           gravar_eeprom@adr 0020            __size_of_AX7400 0039  
          __size_of_AX7402 0039            __size_of_AX7404 0043            __size_of_AX7408 0039  
          __size_of_AX7432 0039            __size_of_AX7447 003E            __size_of_AX7473 0061  
          __size_of_AX7474 0061                    _SSPSTAT 0094            __size_of_AX7486 0061  
                _AX7400$90 0023                  _AX7400$87 0020                  _AX7400$88 0021  
                _AX7400$89 0022                  _AX7402$92 0020                  _AX7402$93 0021  
                _AX7402$94 0022                  _AX7402$95 0023                  _AX7408$98 0020  
                _AX7408$99 0021            ??_gravar_eeprom 0020                  ?_spi_init 0070  
          __size_of_tabela 0081                    __ptext1 0013                    __ptext2 01AE  
                  __ptext3 02AF                    __ptext4 0514                    __ptext5 0589  
                  __ptext6 05EA                    __ptext7 064B                    __ptext8 06EF  
                  __ptext9 0417       end_of_initialization 0F7D          __end_of_spi_write 07FE  
               ??_spi_init 0020             __end_of_AX7400 1000             __end_of_AX7402 07D8  
           __end_of_AX7404 06EF             __end_of_AX7408 079F             __end_of_AX7432 0766  
           __end_of_AX7447 072D             __end_of_AX7473 06AC             __end_of_AX7474 064B  
           __end_of_AX7486 05EA     __size_of_select_portas 019B              __pidataCOMMON 0F58  
           __end_of_tabela 0498        start_initialization 0F69                   ??_AX7400 0020  
                 ??_AX7402 0020                   ??_AX7404 0020                   ??_AX7432 0020  
                 ??_AX7408 0020                   ??_AX7447 0021                   ??_AX7473 0020  
                 ??_AX7474 0020                   ??_AX7486 0020          ?_modo_programacao 0070  
       ??_modo_programacao 0021                AX74165@data 0021                __pdataBANK0 0024  
                 ?_AX74165 0070                   ?_AX74191 0070                   ?_AX74192 0070  
                 ??_tabela 0020                 tabela@dado 0020              __pcstackBANK0 0020  
            _select_portas 0013          __size_of_spi_init 000D                  __pswtext1 0800  
                __pswtext2 080E                  __pswtext3 081C                  __pswtext4 082A  
                __pswtext5 07D8             ?_select_portas 0070             __size_of_xandi 002E  
        interrupt_function 0004      __end_of_gravar_eeprom 0F99                  _spi_write 07F8  
         __size_of_AX74165 0075           __size_of_AX74191 00C9           __size_of_AX74192 0101  
               _AX7408$100 0022                 _AX7408$101 0023                 _AX7432$103 0020  
               _AX7432$104 0021                 _AX7432$105 0022                 _AX7432$106 0023  
               ?_spi_write 0070            ??_select_portas 0020                   __ptext10 072D  
                 __ptext11 0766                   __ptext12 06AC                   __ptext13 079F  
                 __ptext14 0FC7                   __ptext15 0498                   __ptext16 0F80  
                 __ptext17 07F8                   __ptext18 0F5C                   __ptext19 0F99  
            __size_of_main 009F                   _spi_init 0F5C  __size_of_modo_programacao 007C  
                 intlevel1 0000                ??_spi_write 0020                 _OPTION_REG 0081  
        __CFG_FOSC$INTRCIO 0000  
